Archive member included to satisfy reference by file (symbol)

contiki-native.a(contiki-main.o)
                              /usr/lib/gcc/x86_64-linux-gnu/5/../../../x86_64-linux-gnu/crt1.o (main)
contiki-native.a(button-sensor.o)
                              contiki-native.a(contiki-main.o) (button_sensor)
contiki-native.a(pir-sensor.o)
                              contiki-native.a(contiki-main.o) (pir_sensor)
contiki-native.a(vib-sensor.o)
                              contiki-native.a(contiki-main.o) (vib_sensor)
contiki-native.a(sensors.o)   contiki-native.a(button-sensor.o) (sensors_changed)
contiki-native.a(ctimer.o)    contiki-native.a(contiki-main.o) (ctimer_init)
contiki-native.a(autostart.o)
                              contiki-native.a(contiki-main.o) (autostart_start)
contiki-native.a(etimer.o)    contiki-native.a(contiki-main.o) (etimer_request_poll)
contiki-native.a(process.o)   contiki-native.a(ctimer.o) (process_current)
contiki-native.a(rtimer.o)    contiki-native.a(contiki-main.o) (rtimer_init)
contiki-native.a(timer.o)     contiki-native.a(etimer.o) (timer_set)
contiki-native.a(serial-line.o)
                              contiki-native.a(contiki-main.o) (serial_line_input_byte)
contiki-native.a(list.o)      contiki-native.a(ctimer.o) (list_init)
contiki-native.a(ringbuf.o)   contiki-native.a(serial-line.o) (ringbuf_init)
contiki-native.a(uip-ds6.o)   receiver.co (uip_ds6_addr_lookup)
contiki-native.a(uip-ds6-route.o)
                              contiki-native.a(uip-ds6.o) (uip_ds6_route_init)
contiki-native.a(uip6.o)      receiver.co (uip_lladdr)
contiki-native.a(uip-ds6-nbr.o)
                              contiki-native.a(uip-ds6.o) (uip_ds6_neighbors_init)
contiki-native.a(uip-nd6.o)   contiki-native.a(uip-ds6-nbr.o) (uip_nd6_ns_output)
contiki-native.a(sicslowpan.o)
                              contiki-native.a(contiki-main.o) (sicslowpan_driver)
contiki-native.a(uip-packetqueue)
                              contiki-native.a(uip-ds6-nbr.o) (uip_packetqueue_new)
contiki-native.a(uip-debug.o)
                              receiver.co (uip_debug_ipaddr_print)
contiki-native.a(tcpip.o)     contiki-native.a(sicslowpan.o) (tcpip_set_outputfunc)
contiki-native.a(simple-udp.o)
                              receiver.co (simple_udp_register)
contiki-native.a(rpl-dag.o)   receiver.co (rpl_set_prefix)
contiki-native.a(rpl-timers.o)
                              contiki-native.a(rpl-dag.o) (rpl_reset_dio_timer)
contiki-native.a(rpl.o)       contiki-native.a(rpl-timers.o) (rpl_get_mode)
contiki-native.a(rpl-mrhof.o)
                              contiki-native.a(rpl-dag.o) (rpl_mrhof)
contiki-native.a(queuebuf.o)  contiki-native.a(contiki-main.o) (queuebuf_init)
contiki-native.a(nbr-table.o)
                              contiki-native.a(uip-ds6-route.o) (nbr_table_register)
contiki-native.a(packetbuf.o)
                              contiki-native.a(queuebuf.o) (packetbuf_copyto)
contiki-native.a(netstack.o)  contiki-native.a(contiki-main.o) (netstack_init)
contiki-native.a(linkaddr.o)  contiki-native.a(sicslowpan.o) (linkaddr_copy)
contiki-native.a(nullmac.o)   contiki-native.a(contiki-main.o) (nullmac_driver)
contiki-native.a(framer-802154.o)
                              contiki-native.a(sicslowpan.o) (framer_802154)
contiki-native.a(frame802154.o)
                              contiki-native.a(framer-802154.o) (frame802154_hdrlen)
contiki-native.a(framer.o)    contiki-native.a(framer-802154.o) (framer_canonical_create_and_secure)
contiki-native.a(nullrdc.o)   contiki-native.a(contiki-main.o) (nullrdc_driver)
contiki-native.a(nullsec.o)   contiki-native.a(sicslowpan.o) (nullsec_driver)
contiki-native.a(servreg-hack.o)
                              receiver.co (servreg_hack_init)
contiki-native.a(clock.o)     contiki-native.a(etimer.o) (clock_time)
contiki-native.a(rtimer-arch.o)
                              contiki-native.a(rtimer.o) (rtimer_arch_init)
contiki-native.a(watchdog.o)  contiki-native.a(sicslowpan.o) (watchdog_periodic)
contiki-native.a(stimer.o)    contiki-native.a(uip-ds6.o) (stimer_set)
contiki-native.a(nullradio.o)
                              contiki-native.a(netstack.o) (nullradio_driver)
contiki-native.a(memb.o)      contiki-native.a(uip-ds6-route.o) (memb_init)
contiki-native.a(random.o)    contiki-native.a(uip-ds6.o) (random_rand)
contiki-native.a(uip-icmp6.o)
                              contiki-native.a(uip6.o) (uip_icmp6_input)
contiki-native.a(uip-udp-packet.)
                              contiki-native.a(servreg-hack.o) (uip_udp_packet_send)
contiki-native.a(rpl-icmp6.o)
                              contiki-native.a(rpl-timers.o) (dis_output)
contiki-native.a(mac.o)       contiki-native.a(nullrdc.o) (mac_call_sent_callback)
/usr/lib/x86_64-linux-gnu/libc_nonshared.a(elf-init.oS)
                              /usr/lib/gcc/x86_64-linux-gnu/5/../../../x86_64-linux-gnu/crt1.o (__libc_csu_init)

Allocazione dei simboli comuni
Simbolo comune      dimensione        file

default_instance    0x8               contiki-native.a(rpl-dag.o)
uip_ds6_prefix_list
                    0x60              contiki-native.a(uip-ds6.o)
linkaddr_node_addr  0x8               contiki-native.a(linkaddr.o)
uip_slen            0x2               contiki-native.a(uip6.o)
uip_ds6_timer_periodic
                    0x20              contiki-native.a(uip-ds6.o)
uip_acc32           0x4               contiki-native.a(uip6.o)
uip_conns           0x8c0             contiki-native.a(uip6.o)
uip_icmp6_conns     0x10              contiki-native.a(uip6.o)
uip_ds6_netif_addr_list_offset
                    0x1               contiki-native.a(uip-ds6.o)
uip_lladdr          0x8               contiki-native.a(uip6.o)
instance_table      0x1d0             contiki-native.a(rpl-dag.o)
serial_line_event_message
                    0x1               contiki-native.a(serial-line.o)
uip_appdata         0x8               contiki-native.a(uip6.o)
uip_ds6_if          0x110             contiki-native.a(uip-ds6.o)
uip_flags           0x1               contiki-native.a(uip6.o)
uip_ds6_timer_ra    0x10              contiki-native.a(uip-ds6.o)
tcpip_icmp6_event   0x1               contiki-native.a(tcpip.o)
packetbuf_attrs     0x1e              contiki-native.a(packetbuf.o)
uip_ds6_addr_size   0x1               contiki-native.a(uip-ds6.o)
uip_aligned_buf     0x1a4             contiki-native.a(uip6.o)
contiki_argv        0x8               contiki-native.a(contiki-main.o)
uip_listenports     0x50              contiki-native.a(uip6.o)
uip_len             0x2               contiki-native.a(uip6.o)
tcpip_event         0x1               contiki-native.a(tcpip.o)
uip_sappdata        0x8               contiki-native.a(uip6.o)
sensors_event       0x1               contiki-native.a(sensors.o)
uip_udp_conns       0x1e0             contiki-native.a(uip6.o)
frag_sender         0x8               contiki-native.a(sicslowpan.o)
packetbuf_addrs     0x10              contiki-native.a(packetbuf.o)
uip_udp_conn        0x8               contiki-native.a(uip6.o)
sensors_flags       0x4               contiki-native.a(contiki-main.o)
uip_next_hdr        0x8               contiki-native.a(uip6.o)
uip_conn            0x8               contiki-native.a(uip6.o)

Sezioni di input scartate

 .note.GNU-stack
                0x0000000000000000        0x0 /usr/lib/gcc/x86_64-linux-gnu/5/../../../x86_64-linux-gnu/crt1.o
 .note.GNU-stack
                0x0000000000000000        0x0 /usr/lib/gcc/x86_64-linux-gnu/5/../../../x86_64-linux-gnu/crti.o
 .note.GNU-stack
                0x0000000000000000        0x0 /usr/lib/gcc/x86_64-linux-gnu/5/crtbegin.o
 .note.GNU-stack
                0x0000000000000000        0x0 receiver.co
 .note.GNU-stack
                0x0000000000000000        0x0 contiki-native.a(contiki-main.o)
 .note.GNU-stack
                0x0000000000000000        0x0 contiki-native.a(button-sensor.o)
 .note.GNU-stack
                0x0000000000000000        0x0 contiki-native.a(pir-sensor.o)
 .note.GNU-stack
                0x0000000000000000        0x0 contiki-native.a(vib-sensor.o)
 .note.GNU-stack
                0x0000000000000000        0x0 contiki-native.a(sensors.o)
 .note.GNU-stack
                0x0000000000000000        0x0 contiki-native.a(ctimer.o)
 .note.GNU-stack
                0x0000000000000000        0x0 contiki-native.a(autostart.o)
 .note.GNU-stack
                0x0000000000000000        0x0 contiki-native.a(etimer.o)
 .note.GNU-stack
                0x0000000000000000        0x0 contiki-native.a(process.o)
 .note.GNU-stack
                0x0000000000000000        0x0 contiki-native.a(rtimer.o)
 .note.GNU-stack
                0x0000000000000000        0x0 contiki-native.a(timer.o)
 .note.GNU-stack
                0x0000000000000000        0x0 contiki-native.a(serial-line.o)
 .note.GNU-stack
                0x0000000000000000        0x0 contiki-native.a(list.o)
 .note.GNU-stack
                0x0000000000000000        0x0 contiki-native.a(ringbuf.o)
 .note.GNU-stack
                0x0000000000000000        0x0 contiki-native.a(uip-ds6.o)
 .note.GNU-stack
                0x0000000000000000        0x0 contiki-native.a(uip-ds6-route.o)
 .note.GNU-stack
                0x0000000000000000        0x0 contiki-native.a(uip6.o)
 .note.GNU-stack
                0x0000000000000000        0x0 contiki-native.a(uip-ds6-nbr.o)
 .note.GNU-stack
                0x0000000000000000        0x0 contiki-native.a(uip-nd6.o)
 .note.GNU-stack
                0x0000000000000000        0x0 contiki-native.a(sicslowpan.o)
 .note.GNU-stack
                0x0000000000000000        0x0 contiki-native.a(uip-packetqueue)
 .note.GNU-stack
                0x0000000000000000        0x0 contiki-native.a(uip-debug.o)
 .note.GNU-stack
                0x0000000000000000        0x0 contiki-native.a(tcpip.o)
 .note.GNU-stack
                0x0000000000000000        0x0 contiki-native.a(simple-udp.o)
 .note.GNU-stack
                0x0000000000000000        0x0 contiki-native.a(rpl-dag.o)
 .note.GNU-stack
                0x0000000000000000        0x0 contiki-native.a(rpl-timers.o)
 .note.GNU-stack
                0x0000000000000000        0x0 contiki-native.a(rpl.o)
 .note.GNU-stack
                0x0000000000000000        0x0 contiki-native.a(rpl-mrhof.o)
 .note.GNU-stack
                0x0000000000000000        0x0 contiki-native.a(queuebuf.o)
 .note.GNU-stack
                0x0000000000000000        0x0 contiki-native.a(nbr-table.o)
 .note.GNU-stack
                0x0000000000000000        0x0 contiki-native.a(packetbuf.o)
 .note.GNU-stack
                0x0000000000000000        0x0 contiki-native.a(netstack.o)
 .note.GNU-stack
                0x0000000000000000        0x0 contiki-native.a(linkaddr.o)
 .note.GNU-stack
                0x0000000000000000        0x0 contiki-native.a(nullmac.o)
 .note.GNU-stack
                0x0000000000000000        0x0 contiki-native.a(framer-802154.o)
 .note.GNU-stack
                0x0000000000000000        0x0 contiki-native.a(frame802154.o)
 .note.GNU-stack
                0x0000000000000000        0x0 contiki-native.a(framer.o)
 .note.GNU-stack
                0x0000000000000000        0x0 contiki-native.a(nullrdc.o)
 .note.GNU-stack
                0x0000000000000000        0x0 contiki-native.a(nullsec.o)
 .note.GNU-stack
                0x0000000000000000        0x0 contiki-native.a(servreg-hack.o)
 .note.GNU-stack
                0x0000000000000000        0x0 contiki-native.a(clock.o)
 .note.GNU-stack
                0x0000000000000000        0x0 contiki-native.a(rtimer-arch.o)
 .note.GNU-stack
                0x0000000000000000        0x0 contiki-native.a(watchdog.o)
 .note.GNU-stack
                0x0000000000000000        0x0 contiki-native.a(stimer.o)
 .note.GNU-stack
                0x0000000000000000        0x0 contiki-native.a(nullradio.o)
 .note.GNU-stack
                0x0000000000000000        0x0 contiki-native.a(memb.o)
 .note.GNU-stack
                0x0000000000000000        0x0 contiki-native.a(random.o)
 .note.GNU-stack
                0x0000000000000000        0x0 contiki-native.a(uip-icmp6.o)
 .note.GNU-stack
                0x0000000000000000        0x0 contiki-native.a(uip-udp-packet.)
 .note.GNU-stack
                0x0000000000000000        0x0 contiki-native.a(rpl-icmp6.o)
 .note.GNU-stack
                0x0000000000000000        0x0 contiki-native.a(mac.o)
 .note.GNU-stack
                0x0000000000000000        0x0 /usr/lib/x86_64-linux-gnu/libc_nonshared.a(elf-init.oS)
 .note.GNU-stack
                0x0000000000000000        0x0 /usr/lib/gcc/x86_64-linux-gnu/5/crtend.o
 .note.GNU-stack
                0x0000000000000000        0x0 /usr/lib/gcc/x86_64-linux-gnu/5/../../../x86_64-linux-gnu/crtn.o

Configurazione della memoria

Nome             Origine            Lunghezza          Attributi
*default*        0x0000000000000000 0xffffffffffffffff

Script del linker e mappa della memoria

LOAD /usr/lib/gcc/x86_64-linux-gnu/5/../../../x86_64-linux-gnu/crt1.o
LOAD /usr/lib/gcc/x86_64-linux-gnu/5/../../../x86_64-linux-gnu/crti.o
LOAD /usr/lib/gcc/x86_64-linux-gnu/5/crtbegin.o
LOAD receiver.co
LOAD contiki-native.a
LOAD /usr/lib/gcc/x86_64-linux-gnu/5/../../../x86_64-linux-gnu/libncurses.so
LOAD /lib/x86_64-linux-gnu/libncurses.so.5
LOAD /usr/lib/gcc/x86_64-linux-gnu/5/../../../x86_64-linux-gnu/libtinfo.so
LOAD /usr/lib/gcc/x86_64-linux-gnu/5/libgcc.a
LOAD /usr/lib/gcc/x86_64-linux-gnu/5/libgcc_s.so
LOAD /usr/lib/gcc/x86_64-linux-gnu/5/../../../x86_64-linux-gnu/libc.so
START GROUP
LOAD /lib/x86_64-linux-gnu/libc.so.6
LOAD /usr/lib/x86_64-linux-gnu/libc_nonshared.a
LOAD /lib/x86_64-linux-gnu/ld-linux-x86-64.so.2
END GROUP
LOAD /usr/lib/gcc/x86_64-linux-gnu/5/libgcc.a
LOAD /usr/lib/gcc/x86_64-linux-gnu/5/libgcc_s.so
LOAD /usr/lib/gcc/x86_64-linux-gnu/5/crtend.o
LOAD /usr/lib/gcc/x86_64-linux-gnu/5/../../../x86_64-linux-gnu/crtn.o
                [!provide]                        PROVIDE (__executable_start, 0x400000)
                0x0000000000400238                . = (0x400000 + SIZEOF_HEADERS)

.interp         0x0000000000400238       0x1c
 *(.interp)
 .interp        0x0000000000400238       0x1c /usr/lib/gcc/x86_64-linux-gnu/5/../../../x86_64-linux-gnu/crt1.o

.note.ABI-tag   0x0000000000400254       0x20
 .note.ABI-tag  0x0000000000400254       0x20 /usr/lib/gcc/x86_64-linux-gnu/5/../../../x86_64-linux-gnu/crt1.o

.note.gnu.build-id
                0x0000000000400274       0x24
 *(.note.gnu.build-id)
 .note.gnu.build-id
                0x0000000000400274       0x24 /usr/lib/gcc/x86_64-linux-gnu/5/../../../x86_64-linux-gnu/crt1.o

.hash
 *(.hash)

.gnu.hash       0x0000000000400298      0xc50
 *(.gnu.hash)
 .gnu.hash      0x0000000000400298      0xc50 /usr/lib/gcc/x86_64-linux-gnu/5/../../../x86_64-linux-gnu/crt1.o

.dynsym         0x0000000000400ee8     0x2790
 *(.dynsym)
 .dynsym        0x0000000000400ee8     0x2790 /usr/lib/gcc/x86_64-linux-gnu/5/../../../x86_64-linux-gnu/crt1.o

.dynstr         0x0000000000403678     0x1a94
 *(.dynstr)
 .dynstr        0x0000000000403678     0x1a94 /usr/lib/gcc/x86_64-linux-gnu/5/../../../x86_64-linux-gnu/crt1.o

.gnu.version    0x000000000040510c      0x34c
 *(.gnu.version)
 .gnu.version   0x000000000040510c      0x34c /usr/lib/gcc/x86_64-linux-gnu/5/../../../x86_64-linux-gnu/crt1.o

.gnu.version_d  0x0000000000405458        0x0
 *(.gnu.version_d)
 .gnu.version_d
                0x0000000000405458        0x0 /usr/lib/gcc/x86_64-linux-gnu/5/../../../x86_64-linux-gnu/crt1.o

.gnu.version_r  0x0000000000405458       0x50
 *(.gnu.version_r)
 .gnu.version_r
                0x0000000000405458       0x50 /usr/lib/gcc/x86_64-linux-gnu/5/../../../x86_64-linux-gnu/crt1.o

.rela.dyn       0x00000000004054a8       0x48
 *(.rela.init)
 *(.rela.text .rela.text.* .rela.gnu.linkonce.t.*)
 .rela.text     0x00000000004054a8        0x0 /usr/lib/gcc/x86_64-linux-gnu/5/../../../x86_64-linux-gnu/crt1.o
 *(.rela.fini)
 *(.rela.rodata .rela.rodata.* .rela.gnu.linkonce.r.*)
 .rela.rodata   0x00000000004054a8        0x0 /usr/lib/gcc/x86_64-linux-gnu/5/../../../x86_64-linux-gnu/crt1.o
 *(.rela.data .rela.data.* .rela.gnu.linkonce.d.*)
 .rela.data     0x00000000004054a8        0x0 /usr/lib/gcc/x86_64-linux-gnu/5/../../../x86_64-linux-gnu/crt1.o
 *(.rela.tdata .rela.tdata.* .rela.gnu.linkonce.td.*)
 *(.rela.tbss .rela.tbss.* .rela.gnu.linkonce.tb.*)
 *(.rela.ctors)
 *(.rela.dtors)
 *(.rela.got)
 .rela.got      0x00000000004054a8       0x18 /usr/lib/gcc/x86_64-linux-gnu/5/../../../x86_64-linux-gnu/crt1.o
 *(.rela.bss .rela.bss.* .rela.gnu.linkonce.b.*)
 .rela.bss      0x00000000004054c0       0x30 /usr/lib/gcc/x86_64-linux-gnu/5/../../../x86_64-linux-gnu/crt1.o
 *(.rela.ldata .rela.ldata.* .rela.gnu.linkonce.l.*)
 *(.rela.lbss .rela.lbss.* .rela.gnu.linkonce.lb.*)
 *(.rela.lrodata .rela.lrodata.* .rela.gnu.linkonce.lr.*)
 *(.rela.ifunc)

.rela.plt       0x00000000004054f0      0x240
 *(.rela.plt)
 .rela.plt      0x00000000004054f0      0x240 /usr/lib/gcc/x86_64-linux-gnu/5/../../../x86_64-linux-gnu/crt1.o
                [!provide]                        PROVIDE (__rela_iplt_start, .)
 *(.rela.iplt)
 .rela.iplt     0x0000000000405730        0x0 /usr/lib/gcc/x86_64-linux-gnu/5/../../../x86_64-linux-gnu/crt1.o
                [!provide]                        PROVIDE (__rela_iplt_end, .)

.init           0x0000000000405730       0x1a
 *(SORT(.init))
 .init          0x0000000000405730       0x15 /usr/lib/gcc/x86_64-linux-gnu/5/../../../x86_64-linux-gnu/crti.o
                0x0000000000405730                _init
 .init          0x0000000000405745        0x5 /usr/lib/gcc/x86_64-linux-gnu/5/../../../x86_64-linux-gnu/crtn.o

.plt            0x0000000000405750      0x190
 *(.plt)
 .plt           0x0000000000405750      0x190 /usr/lib/gcc/x86_64-linux-gnu/5/../../../x86_64-linux-gnu/crt1.o
                0x0000000000405760                putchar@@GLIBC_2.2.5
                0x0000000000405770                __errno_location@@GLIBC_2.2.5
                0x0000000000405780                strncmp@@GLIBC_2.2.5
                0x0000000000405790                puts@@GLIBC_2.2.5
                0x00000000004057a0                __stack_chk_fail@@GLIBC_2.4
                0x00000000004057b0                gettimeofday@@GLIBC_2.2.5
                0x00000000004057c0                memset@@GLIBC_2.2.5
                0x00000000004057d0                read@@GLIBC_2.2.5
                0x00000000004057e0                __libc_start_main@@GLIBC_2.2.5
                0x00000000004057f0                srand@@GLIBC_2.2.5
                0x0000000000405800                memcmp@@GLIBC_2.2.5
                0x0000000000405810                signal@@GLIBC_2.2.5
                0x0000000000405820                __memmove_chk@@GLIBC_2.3.4
                0x0000000000405830                __memcpy_chk@@GLIBC_2.3.4
                0x0000000000405840                memcpy@@GLIBC_2.14
                0x0000000000405850                select@@GLIBC_2.2.5
                0x0000000000405860                setitimer@@GLIBC_2.2.5
                0x0000000000405870                __printf_chk@@GLIBC_2.3.4
                0x0000000000405880                setvbuf@@GLIBC_2.2.5
                0x0000000000405890                memmove@@GLIBC_2.2.5
                0x00000000004058a0                perror@@GLIBC_2.2.5
                0x00000000004058b0                exit@@GLIBC_2.2.5
                0x00000000004058c0                __fprintf_chk@@GLIBC_2.3.4
                0x00000000004058d0                rand@@GLIBC_2.2.5
 *(.iplt)
 .iplt          0x00000000004058e0        0x0 /usr/lib/gcc/x86_64-linux-gnu/5/../../../x86_64-linux-gnu/crt1.o

.plt.got        0x00000000004058e0        0x8
 *(.plt.got)
 .plt.got       0x00000000004058e0        0x8 /usr/lib/gcc/x86_64-linux-gnu/5/../../../x86_64-linux-gnu/crt1.o

.plt.bnd
 *(.plt.bnd)

.text           0x00000000004058f0     0xca52
 *(.text.unlikely .text.*_unlikely .text.unlikely.*)
 .text.unlikely
                0x00000000004058f0        0x0 /usr/lib/gcc/x86_64-linux-gnu/5/crtbegin.o
 .text.unlikely
                0x00000000004058f0        0x0 /usr/lib/x86_64-linux-gnu/libc_nonshared.a(elf-init.oS)
 *(.text.exit .text.exit.*)
 *(.text.startup .text.startup.*)
 *(.text.hot .text.hot.*)
 *(.text .stub .text.* .gnu.linkonce.t.*)
 .text          0x00000000004058f0       0x2a /usr/lib/gcc/x86_64-linux-gnu/5/../../../x86_64-linux-gnu/crt1.o
                0x00000000004058f0                _start
 .text          0x000000000040591a        0x0 /usr/lib/gcc/x86_64-linux-gnu/5/../../../x86_64-linux-gnu/crti.o
 *fill*         0x000000000040591a        0x6 
 .text          0x0000000000405920       0xc6 /usr/lib/gcc/x86_64-linux-gnu/5/crtbegin.o
 .text          0x00000000004059e6      0x213 receiver.co
 .text          0x0000000000405bf9      0x418 contiki-native.a(contiki-main.o)
                0x0000000000405c59                select_set_callback
                0x0000000000405cf9                main
                0x0000000000405fc0                log_message
                0x0000000000405fea                uip_log
 .text          0x0000000000406011       0x25 contiki-native.a(button-sensor.o)
                0x0000000000406023                button_press
 .text          0x0000000000406036       0x2c contiki-native.a(pir-sensor.o)
                0x0000000000406049                pir_sensor_changed
 .text          0x0000000000406062       0x2d contiki-native.a(vib-sensor.o)
                0x0000000000406075                vib_sensor_changed
 .text          0x000000000040608f      0x27e contiki-native.a(sensors.o)
                0x00000000004061dc                sensors_first
                0x00000000004061e4                sensors_next
                0x0000000000406235                sensors_changed
                0x0000000000406294                sensors_find
 .text          0x000000000040630d      0x27b contiki-native.a(ctimer.o)
                0x00000000004063e7                ctimer_init
                0x0000000000406410                ctimer_set
                0x000000000040646a                ctimer_reset
                0x00000000004064b2                ctimer_restart
                0x00000000004064fa                ctimer_stop
                0x0000000000406531                ctimer_expired
 .text          0x0000000000406588       0x69 contiki-native.a(autostart.o)
                0x0000000000406588                autostart_start
                0x00000000004065bf                autostart_exit
 .text          0x00000000004065f1      0x2f7 contiki-native.a(etimer.o)
                0x0000000000406656                etimer_request_poll
                0x00000000004067f5                etimer_set
                0x0000000000406808                etimer_reset
                0x000000000040681b                etimer_restart
                0x000000000040682e                etimer_adjust
                0x0000000000406842                etimer_expired
                0x000000000040684e                etimer_expiration_time
                0x0000000000406856                etimer_start_time
                0x000000000040685a                etimer_pending
                0x0000000000406869                etimer_next_expiration_time
                0x000000000040687f                etimer_stop
 .text          0x00000000004068e8      0x3cb contiki-native.a(process.o)
                0x0000000000406a6d                process_alloc_event
                0x0000000000406a7e                process_exit
                0x0000000000406a93                process_init
                0x0000000000406abf                process_run
                0x0000000000406bbb                process_nevents
                0x0000000000406bcf                process_post
                0x0000000000406c1b                process_post_synch
                0x0000000000406c35                process_start
                0x0000000000406c8b                process_poll
                0x0000000000406ca8                process_is_running
 .text          0x0000000000406cb3       0x87 contiki-native.a(rtimer.o)
                0x0000000000406cb3                rtimer_init
                0x0000000000406cc1                rtimer_set
                0x0000000000406cfb                rtimer_run_next
 .text          0x0000000000406d3a       0x59 contiki-native.a(timer.o)
                0x0000000000406d3a                timer_set
                0x0000000000406d4c                timer_reset
                0x0000000000406d54                timer_restart
                0x0000000000406d62                timer_expired
                0x0000000000406d7e                timer_remaining
 .text          0x0000000000406d93      0x187 contiki-native.a(serial-line.o)
                0x0000000000406e84                serial_line_input_byte
                0x0000000000406eee                serial_line_init
 .text          0x0000000000406f1a      0x144 contiki-native.a(list.o)
                0x0000000000406f1a                list_init
                0x0000000000406f22                list_head
                0x0000000000406f26                list_copy
                0x0000000000406f2d                list_tail
                0x0000000000406f4a                list_chop
                0x0000000000406f7d                list_pop
                0x0000000000406f8d                list_remove
                0x0000000000406fcf                list_add
                0x0000000000406ffc                list_push
                0x0000000000407016                list_length
                0x0000000000407036                list_insert
                0x000000000040704f                list_item_next
 .text          0x000000000040705e       0x9b contiki-native.a(ringbuf.o)
                0x000000000040705e                ringbuf_init
                0x0000000000407070                ringbuf_put
                0x00000000004070ac                ringbuf_get
                0x00000000004070e0                ringbuf_size
                0x00000000004070e8                ringbuf_elements
 .text          0x00000000004070f9      0x8ea contiki-native.a(uip-ds6.o)
                0x00000000004070f9                uip_ds6_list_loop
                0x0000000000407184                uip_ds6_prefix_add
                0x000000000040721a                uip_ds6_prefix_rm
                0x0000000000407224                uip_ds6_prefix_lookup
                0x000000000040725d                uip_ds6_is_addr_onlink
                0x00000000004072bc                uip_ds6_addr_lookup
                0x00000000004072f7                uip_ds6_get_link_local
                0x0000000000407340                uip_ds6_get_global
                0x0000000000407389                uip_ds6_maddr_add
                0x00000000004073e5                uip_ds6_addr_add
                0x00000000004074e8                uip_ds6_maddr_rm
                0x00000000004074f2                uip_ds6_maddr_lookup
                0x000000000040752d                uip_ds6_addr_rm
                0x00000000004075ba                uip_ds6_periodic
                0x0000000000407626                uip_ds6_aaddr_add
                0x0000000000407682                uip_ds6_aaddr_rm
                0x000000000040768c                uip_ds6_aaddr_lookup
                0x00000000004076c7                uip_ds6_set_addr_iid
                0x00000000004076d3                get_match_length
                0x000000000040772e                uip_ds6_select_src
                0x000000000040780b                uip_ds6_compute_reachable_time
                0x0000000000407847                uip_ds6_init
 .text          0x00000000004079e3      0x6a4 contiki-native.a(uip-ds6-route.o)
                0x0000000000407a44                uip_ds6_notification_add
                0x0000000000407a69                uip_ds6_notification_rm
                0x0000000000407a7f                uip_ds6_route_init
                0x0000000000407ac9                uip_ds6_route_nexthop
                0x0000000000407af5                uip_ds6_route_head
                0x0000000000407b08                uip_ds6_route_next
                0x0000000000407b23                uip_ds6_route_num_routes
                0x0000000000407b2a                uip_ds6_route_lookup
                0x0000000000407bcf                uip_ds6_route_rm
                0x0000000000407d07                uip_ds6_route_add
                0x0000000000407e92                uip_ds6_route_rm_by_nexthop
                0x0000000000407eb5                uip_ds6_defrt_rm
                0x0000000000407f10                uip_ds6_defrt_lookup
                0x0000000000407f68                uip_ds6_defrt_add
                0x0000000000407fe8                uip_ds6_defrt_choose
                0x0000000000408038                uip_ds6_defrt_periodic
 .text          0x0000000000408087     0x1d3e contiki-native.a(uip6.o)
                0x000000000040827c                uip_add32
                0x0000000000408344                uip_chksum
                0x0000000000408359                uip_icmp6chksum
                0x0000000000408365                uip_tcpchksum
                0x0000000000408371                uip_udpchksum
                0x000000000040837d                uip_init
                0x00000000004083eb                uip_connect
                0x0000000000408531                remove_ext_hdr
                0x00000000004085be                uip_udp_new
                0x0000000000408711                uip_unlisten
                0x0000000000408787                uip_listen
                0x00000000004087fb                uip_process
                0x0000000000409d28                uip_htons
                0x0000000000409d2f                uip_htonl
                0x0000000000409d52                uip_send
 .text          0x0000000000409dc5      0x3c3 contiki-native.a(uip-ds6-nbr.o)
                0x0000000000409dc5                uip_ds6_nbr_rm
                0x0000000000409de9                uip_ds6_neighbors_init
                0x0000000000409e03                uip_ds6_nbr_add
                0x0000000000409e77                uip_ds6_nbr_get_ipaddr
                0x0000000000409e7b                uip_ds6_nbr_get_ll
                0x0000000000409e93                uip_ds6_nbr_num
                0x0000000000409ecc                uip_ds6_nbr_lookup
                0x0000000000409f38                uip_ds6_nbr_ll_lookup
                0x0000000000409f50                uip_ds6_nbr_ipaddr_from_lladdr
                0x0000000000409f5e                uip_ds6_nbr_lladdr_from_ipaddr
                0x0000000000409f80                uip_ds6_link_neighbor_callback
                0x0000000000409fa0                uip_ds6_neighbor_periodic
                0x000000000040a118                uip_ds6_get_least_lifetime_neighbor
 .text          0x000000000040a188      0x986 contiki-native.a(uip-nd6.o)
                0x000000000040a8c7                uip_nd6_ns_output
                0x000000000040aaf1                uip_nd6_init
 .text          0x000000000040ab0e     0x1671 contiki-native.a(sicslowpan.o)
                0x000000000040ab0e                sicslowpan_init
                0x000000000040c164                rime_sniffer_add
                0x000000000040c16c                rime_sniffer_remove
                0x000000000040c178                sicslowpan_get_last_rssi
 .text          0x000000000040c17f       0xd6 contiki-native.a(uip-packetqueue)
                0x000000000040c199                uip_packetqueue_new
                0x000000000040c1a1                uip_packetqueue_alloc
                0x000000000040c1ec                uip_packetqueue_free
                0x000000000040c21b                uip_packetqueue_buf
                0x000000000040c22e                uip_packetqueue_buflen
                0x000000000040c244                uip_packetqueue_set_buflen
 .text          0x000000000040c255      0x13d contiki-native.a(uip-debug.o)
                0x000000000040c255                uip_debug_ipaddr_print
                0x000000000040c311                uip_debug_lladdr_print
 .text          0x000000000040c392      0x92c contiki-native.a(tcpip.o)
                0x000000000040c3b3                tcpip_output
                0x000000000040c3d0                tcpip_set_outputfunc
                0x000000000040c3d8                tcp_unlisten
                0x000000000040c44d                tcp_listen
                0x000000000040c4d6                tcp_attach
                0x000000000040c4e6                udp_attach
                0x000000000040c4f6                udp_new
                0x000000000040c518                udp_broadcast_new
                0x000000000040c598                icmp6_new
                0x000000000040c5c3                tcpip_icmp6_call
                0x000000000040c5ee                tcpip_input
                0x000000000040c61b                tcpip_ipv6_output
                0x000000000040cba3                tcpip_poll_udp
                0x000000000040cbbe                tcpip_poll_tcp
                0x000000000040cbd9                tcp_connect
                0x000000000040cc13                tcpip_uipcall
 .text          0x000000000040ccbe      0x230 contiki-native.a(simple-udp.o)
                0x000000000040cda7                simple_udp_send
                0x000000000040cde1                simple_udp_sendto
                0x000000000040ce17                simple_udp_sendto_port
                0x000000000040ce45                simple_udp_register
 .text          0x000000000040ceee     0x17c0 contiki-native.a(rpl-dag.o)
                0x000000000040d086                rpl_get_nbr
                0x000000000040d0b9                rpl_print_neighbor_list
                0x000000000040d22b                rpl_dag_init
                0x000000000040d245                rpl_get_parent
                0x000000000040d25d                rpl_get_parent_rank
                0x000000000040d285                rpl_get_parent_link_metric
                0x000000000040d2ad                rpl_get_parent_ipaddr
                0x000000000040d2cd                rpl_set_prefix
                0x000000000040d3ae                rpl_set_default_route
                0x000000000040d415                rpl_alloc_instance
                0x000000000040d459                rpl_set_default_instance
                0x000000000040d461                rpl_get_default_instance
                0x000000000040d469                rpl_add_parent
                0x000000000040d4d3                rpl_find_parent
                0x000000000040d4fa                rpl_find_parent_any_dag
                0x000000000040d531                rpl_select_parent
                0x000000000040d5cf                rpl_select_dag
                0x000000000040d821                rpl_nullify_parent
                0x000000000040d893                rpl_remove_parent
                0x000000000040d90a                rpl_free_dag
                0x000000000040d944                rpl_free_instance
                0x000000000040d9d5                rpl_move_parent
                0x000000000040da46                rpl_get_any_dag
                0x000000000040da6a                rpl_get_instance
                0x000000000040da8f                rpl_repair_root
                0x000000000040db0b                rpl_alloc_dag
                0x000000000040dbb0                rpl_set_root
                0x000000000040dd2b                rpl_find_of
                0x000000000040dd41                rpl_join_instance
                0x000000000040defb                rpl_local_repair
                0x000000000040df79                rpl_process_parent_event
                0x000000000040e01b                rpl_add_dag
                0x000000000040e177                rpl_recalculate_ranks
                0x000000000040e1d0                rpl_process_dio
                0x000000000040e696                rpl_lock_parent
 .text          0x000000000040e6ae      0x527 contiki-native.a(rpl-timers.o)
                0x000000000040e97e                rpl_reset_periodic_timer
                0x000000000040e9d0                rpl_reset_dio_timer
                0x000000000040e9fb                rpl_schedule_dao
                0x000000000040ea0e                rpl_schedule_dao_immediately
                0x000000000040ea21                rpl_cancel_dao
                0x000000000040ea3f                rpl_schedule_probing
 .text          0x000000000040ebd5      0x363 contiki-native.a(rpl.o)
                0x000000000040ebd5                rpl_get_mode
                0x000000000040ebdc                rpl_set_mode
                0x000000000040ec30                rpl_purge_routes
                0x000000000040ece8                rpl_remove_routes
                0x000000000040ed1a                rpl_remove_routes_by_nexthop
                0x000000000040ed7a                rpl_add_route
                0x000000000040edb6                rpl_link_neighbor_callback
                0x000000000040ee77                rpl_ipv6_neighbor_callback
                0x000000000040eea6                rpl_init
 .text          0x000000000040ef38      0x186 contiki-native.a(rpl-mrhof.o)
 .text          0x000000000040f0be      0x1ab contiki-native.a(queuebuf.o)
                0x000000000040f0be                queuebuf_init
                0x000000000040f0db                queuebuf_numfree
                0x000000000040f0ee                queuebuf_new_from_packetbuf
                0x000000000040f161                queuebuf_update_attr_from_packetbuf
                0x000000000040f180                queuebuf_update_from_packetbuf
                0x000000000040f1a8                queuebuf_free
                0x000000000040f1d9                queuebuf_to_packetbuf
                0x000000000040f215                queuebuf_dataptr
                0x000000000040f236                queuebuf_datalen
                0x000000000040f241                queuebuf_addr
                0x000000000040f257                queuebuf_attr
                0x000000000040f267                queuebuf_debug_print
 .text          0x000000000040f269      0x505 contiki-native.a(nbr-table.o)
                0x000000000040f3b4                nbr_table_register
                0x000000000040f3e5                nbr_table_next
                0x000000000040f459                nbr_table_head
                0x000000000040f4ad                nbr_table_add_lladdr
                0x000000000040f697                nbr_table_get_from_lladdr
                0x000000000040f6d7                nbr_table_remove
                0x000000000040f716                nbr_table_lock
                0x000000000040f72d                nbr_table_unlock
                0x000000000040f744                nbr_table_get_lladdr
 .text          0x000000000040f76e      0x37f contiki-native.a(packetbuf.o)
                0x000000000040f76e                packetbuf_clear_hdr
                0x000000000040f776                packetbuf_compact
                0x000000000040f7d0                packetbuf_copyto_hdr
                0x000000000040f7fa                packetbuf_copyto
                0x000000000040f873                packetbuf_hdr_remove
                0x000000000040f87b                packetbuf_hdrreduce
                0x000000000040f8a5                packetbuf_set_datalen
                0x000000000040f8ad                packetbuf_dataptr
                0x000000000040f8bb                packetbuf_hdrptr
                0x000000000040f8c9                packetbuf_datalen
                0x000000000040f8d1                packetbuf_hdrlen
                0x000000000040f8e9                packetbuf_totlen
                0x000000000040f8f9                packetbuf_hdralloc
                0x000000000040f939                packetbuf_attr_clear
                0x000000000040f978                packetbuf_clear
                0x000000000040f9aa                packetbuf_copyfrom
                0x000000000040f9ea                packetbuf_attr_copyto
                0x000000000040fa34                packetbuf_attr_copyfrom
                0x000000000040fa7e                packetbuf_set_attr
                0x000000000040fa90                packetbuf_attr
                0x000000000040fa9d                packetbuf_set_addr
                0x000000000040fac2                packetbuf_addr
                0x000000000040fad5                packetbuf_holds_broadcast
 .text          0x000000000040faed       0x21 contiki-native.a(netstack.o)
                0x000000000040faed                netstack_init
 .text          0x000000000040fb0e       0x31 contiki-native.a(linkaddr.o)
                0x000000000040fb0e                linkaddr_copy
                0x000000000040fb15                linkaddr_cmp
                0x000000000040fb30                linkaddr_set_node_addr
 .text          0x000000000040fb3f       0x44 contiki-native.a(nullmac.o)
 .text          0x000000000040fb83      0x2c2 contiki-native.a(framer-802154.o)
 .text          0x000000000040fe45      0x437 contiki-native.a(frame802154.o)
                0x000000000040feb3                frame802154_hdrlen
                0x000000000040ff0b                frame802154_create
                0x0000000000410054                frame802154_parse
 .text          0x000000000041027c       0x24 contiki-native.a(framer.o)
                0x000000000041027c                framer_canonical_create_and_secure
 .text          0x00000000004102a0      0x13d contiki-native.a(nullrdc.o)
 .text          0x00000000004103dd       0x54 contiki-native.a(nullsec.o)
 .text          0x0000000000410431      0x572 contiki-native.a(servreg-hack.o)
                0x00000000004104d7                servreg_hack_init
                0x000000000041051e                servreg_hack_register
                0x00000000004105f9                servreg_hack_list_head
                0x000000000041094d                servreg_hack_item_id
                0x0000000000410952                servreg_hack_item_address
                0x0000000000410957                servreg_hack_lookup
 .text          0x00000000004109a3       0xa8 contiki-native.a(clock.o)
                0x00000000004109a3                clock_time
                0x0000000000410a0a                clock_seconds
                0x0000000000410a49                clock_delay
 .text          0x0000000000410a4b       0xbe contiki-native.a(rtimer-arch.o)
                0x0000000000410a63                rtimer_arch_init
                0x0000000000410a7b                rtimer_arch_schedule
 .text          0x0000000000410b09       0x16 contiki-native.a(watchdog.o)
                0x0000000000410b09                watchdog_init
                0x0000000000410b0b                watchdog_start
                0x0000000000410b0d                watchdog_periodic
                0x0000000000410b0f                watchdog_stop
                0x0000000000410b11                watchdog_reboot
 .text          0x0000000000410b1f       0x70 contiki-native.a(stimer.o)
                0x0000000000410b1f                stimer_set
                0x0000000000410b31                stimer_reset
                0x0000000000410b39                stimer_restart
                0x0000000000410b47                stimer_expired
                0x0000000000410b6c                stimer_remaining
                0x0000000000410b81                stimer_elapsed
 .text          0x0000000000410b8f       0x54 contiki-native.a(nullradio.o)
 .text          0x0000000000410be3      0x138 contiki-native.a(memb.o)
                0x0000000000410be3                memb_init
                0x0000000000410c16                memb_alloc
                0x0000000000410c6a                memb_free
                0x0000000000410cc6                memb_inmemb
                0x0000000000410cee                memb_numfree
 .text          0x0000000000410d1b       0x1f contiki-native.a(random.o)
                0x0000000000410d1b                random_init
                0x0000000000410d2c                random_rand
 .text          0x0000000000410d3a      0x5e6 contiki-native.a(uip-icmp6.o)
                0x0000000000410f78                uip_icmp6_input
                0x0000000000410fe2                uip_icmp6_register_input_handler
                0x0000000000410ff8                uip_icmp6_error_output
                0x0000000000411208                uip_icmp6_send
                0x00000000004112c8                uip_icmp6_echo_reply_callback_add
                0x00000000004112ed                uip_icmp6_echo_reply_callback_rm
                0x0000000000411303                uip_icmp6_init
 .text          0x0000000000411320       0xce contiki-native.a(uip-udp-packet.)
                0x0000000000411320                uip_udp_packet_send
                0x000000000041137e                uip_udp_packet_sendto
 .text          0x00000000004113ee      0xebb contiki-native.a(rpl-icmp6.o)
                0x0000000000411847                dis_output
                0x00000000004118dd                dio_output
                0x0000000000411cab                dao_output_target
                0x0000000000411dc1                dao_output
                0x0000000000411e4b                dao_ack_output
                0x0000000000412278                rpl_icmp6_register_handlers
 .text          0x00000000004122a9       0x1b contiki-native.a(mac.o)
                0x00000000004122a9                mac_call_sent_callback
 *fill*         0x00000000004122c4        0xc 
 .text          0x00000000004122d0       0x72 /usr/lib/x86_64-linux-gnu/libc_nonshared.a(elf-init.oS)
                0x00000000004122d0                __libc_csu_init
                0x0000000000412340                __libc_csu_fini
 .text          0x0000000000412342        0x0 /usr/lib/gcc/x86_64-linux-gnu/5/crtend.o
 .text          0x0000000000412342        0x0 /usr/lib/gcc/x86_64-linux-gnu/5/../../../x86_64-linux-gnu/crtn.o
 *(.gnu.warning)

.fini           0x0000000000412344        0x9
 *(SORT(.fini))
 .fini          0x0000000000412344        0x4 /usr/lib/gcc/x86_64-linux-gnu/5/../../../x86_64-linux-gnu/crti.o
                0x0000000000412344                _fini
 .fini          0x0000000000412348        0x5 /usr/lib/gcc/x86_64-linux-gnu/5/../../../x86_64-linux-gnu/crtn.o
                [!provide]                        PROVIDE (__etext, .)
                [!provide]                        PROVIDE (_etext, .)
                [!provide]                        PROVIDE (etext, .)

.rodata         0x0000000000412360      0x890
 *(.rodata .rodata.* .gnu.linkonce.r.*)
 .rodata.cst4   0x0000000000412360        0x4 /usr/lib/gcc/x86_64-linux-gnu/5/../../../x86_64-linux-gnu/crt1.o
                0x0000000000412360                _IO_stdin_used
 .rodata.str1.1
                0x0000000000412364       0x25 receiver.co
 *fill*         0x0000000000412389        0x7 
 .rodata.str1.8
                0x0000000000412390       0x51 receiver.co
 *fill*         0x00000000004123e1        0xf 
 .rodata        0x00000000004123f0       0x10 receiver.co
                0x00000000004123f0                autostart_processes
 .rodata.str1.1
                0x0000000000412400       0x7c contiki-native.a(contiki-main.o)
                                         0x80 (dimensione prima del rilassamento)
 *fill*         0x000000000041247c        0x4 
 .rodata.str1.8
                0x0000000000412480       0x23 contiki-native.a(contiki-main.o)
 *fill*         0x00000000004124a3        0xd 
 .rodata        0x00000000004124b0       0x18 contiki-native.a(contiki-main.o)
 .rodata.str1.1
                0x00000000004124c8        0x7 contiki-native.a(button-sensor.o)
 *fill*         0x00000000004124cf       0x11 
 .rodata        0x00000000004124e0       0x20 contiki-native.a(button-sensor.o)
                0x00000000004124e0                button_sensor
 .rodata.str1.1
                0x0000000000412500        0x4 contiki-native.a(pir-sensor.o)
 *fill*         0x0000000000412504       0x1c 
 .rodata        0x0000000000412520       0x20 contiki-native.a(pir-sensor.o)
                0x0000000000412520                pir_sensor
 .rodata.str1.1
                0x0000000000412540        0xa contiki-native.a(vib-sensor.o)
 *fill*         0x000000000041254a       0x16 
 .rodata        0x0000000000412560       0x20 contiki-native.a(vib-sensor.o)
                0x0000000000412560                vib_sensor
 .rodata.str1.1
                0x0000000000412580        0x8 contiki-native.a(sensors.o)
 .rodata.str1.1
                0x0000000000412588        0xf contiki-native.a(ctimer.o)
 .rodata.str1.1
                0x0000000000412597        0xc contiki-native.a(etimer.o)
 .rodata.str1.1
                0x00000000004125a3        0xe contiki-native.a(serial-line.o)
 *fill*         0x00000000004125b1        0x7 
 .rodata        0x00000000004125b8      0x2f0 contiki-native.a(uip6.o)
 .rodata.str1.1
                0x00000000004128a8        0xb contiki-native.a(sicslowpan.o)
 *fill*         0x00000000004128b3        0xd 
 .rodata        0x00000000004128c0       0x2a contiki-native.a(sicslowpan.o)
                0x00000000004128c0                sicslowpan_driver
                0x00000000004128dc                llprefix
                0x00000000004128de                unc_mxconf
                0x00000000004128e2                unc_ctxconf
                0x00000000004128e6                unc_llconf
 .rodata.str1.1
                0x00000000004128ea       0x29 contiki-native.a(uip-debug.o)
 .rodata.str1.1
                0x0000000000412913        0xd contiki-native.a(tcpip.o)
 .rodata.str1.1
                0x0000000000412920       0x13 contiki-native.a(simple-udp.o)
 *fill*         0x0000000000412933        0x5 
 .rodata.str1.8
                0x0000000000412938       0x5e contiki-native.a(rpl-dag.o)
 .rodata.str1.1
                0x0000000000412996       0x11 contiki-native.a(rpl-dag.o)
 *fill*         0x00000000004129a7        0x1 
 .rodata        0x00000000004129a8        0x8 contiki-native.a(linkaddr.o)
                0x00000000004129a8                linkaddr_null
 .rodata.str1.1
                0x00000000004129b0        0x8 contiki-native.a(nullmac.o)
 *fill*         0x00000000004129b8        0x8 
 .rodata        0x00000000004129c0       0x38 contiki-native.a(nullmac.o)
                0x00000000004129c0                nullmac_driver
 *fill*         0x00000000004129f8        0x8 
 .rodata        0x0000000000412a00       0x20 contiki-native.a(framer-802154.o)
                0x0000000000412a00                framer_802154
 .rodata.str1.1
                0x0000000000412a20        0x8 contiki-native.a(nullrdc.o)
 *fill*         0x0000000000412a28       0x18 
 .rodata        0x0000000000412a40       0x40 contiki-native.a(nullrdc.o)
                0x0000000000412a40                nullrdc_driver
 .rodata.str1.1
                0x0000000000412a80        0x8 contiki-native.a(nullsec.o)
 *fill*         0x0000000000412a88       0x18 
 .rodata        0x0000000000412aa0       0x30 contiki-native.a(nullsec.o)
                0x0000000000412aa0                nullsec_driver
 .rodata.str1.8
                0x0000000000412ad0       0x88 contiki-native.a(servreg-hack.o)
                                         0x84 (dimensione prima del rilassamento)
 .rodata.str1.1
                0x0000000000412b58       0x15 contiki-native.a(servreg-hack.o)
 *fill*         0x0000000000412b6d       0x13 
 .rodata        0x0000000000412b80       0x70 contiki-native.a(nullradio.o)
                0x0000000000412b80                nullradio_driver

.rodata1
 *(.rodata1)

.eh_frame_hdr   0x0000000000412bf0      0xdcc
 *(.eh_frame_hdr)
 .eh_frame_hdr  0x0000000000412bf0      0xdcc /usr/lib/gcc/x86_64-linux-gnu/5/../../../x86_64-linux-gnu/crt1.o
                0x0000000000412bf0                __GNU_EH_FRAME_HDR
 *(.eh_frame_entry .eh_frame_entry.*)

.eh_frame       0x00000000004139c0     0x37cc
 *(.eh_frame)
 .eh_frame      0x00000000004139c0       0x30 /usr/lib/gcc/x86_64-linux-gnu/5/../../../x86_64-linux-gnu/crt1.o
 .eh_frame      0x00000000004139f0       0x40 /usr/lib/gcc/x86_64-linux-gnu/5/../../../x86_64-linux-gnu/crt1.o
 .eh_frame      0x0000000000413a30       0x78 receiver.co
                                         0x88 (dimensione prima del rilassamento)
 .eh_frame      0x0000000000413aa8       0xb0 contiki-native.a(contiki-main.o)
                                         0xc0 (dimensione prima del rilassamento)
 .eh_frame      0x0000000000413b58       0x60 contiki-native.a(button-sensor.o)
                                         0x70 (dimensione prima del rilassamento)
 .eh_frame      0x0000000000413bb8       0x60 contiki-native.a(pir-sensor.o)
                                         0x70 (dimensione prima del rilassamento)
 .eh_frame      0x0000000000413c18       0x60 contiki-native.a(vib-sensor.o)
                                         0x70 (dimensione prima del rilassamento)
 .eh_frame      0x0000000000413c78       0xa8 contiki-native.a(sensors.o)
                                         0xb0 (dimensione prima del rilassamento)
 .eh_frame      0x0000000000413d20      0x100 contiki-native.a(ctimer.o)
                                        0x110 (dimensione prima del rilassamento)
 .eh_frame      0x0000000000413e20       0x50 contiki-native.a(autostart.o)
                                         0x68 (dimensione prima del rilassamento)
 .eh_frame      0x0000000000413e70      0x190 contiki-native.a(etimer.o)
                                        0x180 (dimensione prima del rilassamento)
 .eh_frame      0x0000000000414000      0x180 contiki-native.a(process.o)
                                        0x178 (dimensione prima del rilassamento)
 .eh_frame      0x0000000000414180       0x48 contiki-native.a(rtimer.o)
                                         0x60 (dimensione prima del rilassamento)
 .eh_frame      0x00000000004141c8       0x98 contiki-native.a(timer.o)
                                         0xa0 (dimensione prima del rilassamento)
 .eh_frame      0x0000000000414260       0x58 contiki-native.a(serial-line.o)
                                         0x70 (dimensione prima del rilassamento)
 .eh_frame      0x00000000004142b8      0x140 contiki-native.a(list.o)
                                        0x128 (dimensione prima del rilassamento)
 .eh_frame      0x00000000004143f8       0x78 contiki-native.a(ringbuf.o)
                                         0x80 (dimensione prima del rilassamento)
 .eh_frame      0x0000000000414470      0x2f0 contiki-native.a(uip-ds6.o)
                                        0x2d8 (dimensione prima del rilassamento)
 .eh_frame      0x0000000000414760      0x2c0 contiki-native.a(uip-ds6-route.o)
                                        0x2b8 (dimensione prima del rilassamento)
 .eh_frame      0x0000000000414a20      0x210 contiki-native.a(uip6.o)
                                        0x1f0 (dimensione prima del rilassamento)
 .eh_frame      0x0000000000414c30      0x1b0 contiki-native.a(uip-ds6-nbr.o)
                                        0x1b8 (dimensione prima del rilassamento)
 .eh_frame      0x0000000000414de0       0xd0 contiki-native.a(uip-nd6.o)
                                         0xe0 (dimensione prima del rilassamento)
 .eh_frame      0x0000000000414eb0      0x1c0 contiki-native.a(sicslowpan.o)
                                        0x1b8 (dimensione prima del rilassamento)
 .eh_frame      0x0000000000415070       0xd0 contiki-native.a(uip-packetqueue)
 .eh_frame      0x0000000000415140       0x68 contiki-native.a(uip-debug.o)
                                         0x80 (dimensione prima del rilassamento)
 .eh_frame      0x00000000004151a8      0x210 contiki-native.a(tcpip.o)
                                        0x208 (dimensione prima del rilassamento)
 .eh_frame      0x00000000004153b8       0xd0 contiki-native.a(simple-udp.o)
                                         0xe0 (dimensione prima del rilassamento)
 .eh_frame      0x0000000000415488      0x678 contiki-native.a(rpl-dag.o)
                                        0x630 (dimensione prima del rilassamento)
 .eh_frame      0x0000000000415b00      0x1c0 contiki-native.a(rpl-timers.o)
 .eh_frame      0x0000000000415cc0      0x120 contiki-native.a(rpl.o)
                                        0x128 (dimensione prima del rilassamento)
 .eh_frame      0x0000000000415de0      0x100 contiki-native.a(rpl-mrhof.o)
 .eh_frame      0x0000000000415ee0      0x150 contiki-native.a(queuebuf.o)
                                        0x148 (dimensione prima del rilassamento)
 .eh_frame      0x0000000000416030      0x220 contiki-native.a(nbr-table.o)
                                        0x210 (dimensione prima del rilassamento)
 .eh_frame      0x0000000000416250      0x270 contiki-native.a(packetbuf.o)
                                        0x248 (dimensione prima del rilassamento)
 .eh_frame      0x00000000004164c0       0x18 contiki-native.a(netstack.o)
                                         0x30 (dimensione prima del rilassamento)
 .eh_frame      0x00000000004164d8       0x48 contiki-native.a(linkaddr.o)
                                         0x58 (dimensione prima del rilassamento)
 .eh_frame      0x0000000000416520       0x90 contiki-native.a(nullmac.o)
                                         0xa0 (dimensione prima del rilassamento)
 .eh_frame      0x00000000004165b0       0x80 contiki-native.a(framer-802154.o)
                                         0x98 (dimensione prima del rilassamento)
 .eh_frame      0x0000000000416630       0xa0 contiki-native.a(frame802154.o)
                                         0xb0 (dimensione prima del rilassamento)
 .eh_frame      0x00000000004166d0       0x20 contiki-native.a(framer.o)
                                         0x38 (dimensione prima del rilassamento)
 .eh_frame      0x00000000004166f0       0xf0 contiki-native.a(nullrdc.o)
                                        0x100 (dimensione prima del rilassamento)
 .eh_frame      0x00000000004167e0       0x88 contiki-native.a(nullsec.o)
                                         0x98 (dimensione prima del rilassamento)
 .eh_frame      0x0000000000416868      0x130 contiki-native.a(servreg-hack.o)
                                        0x138 (dimensione prima del rilassamento)
 .eh_frame      0x0000000000416998       0x48 contiki-native.a(clock.o)
                                         0x60 (dimensione prima del rilassamento)
 .eh_frame      0x00000000004169e0       0x50 contiki-native.a(rtimer-arch.o)
                                         0x68 (dimensione prima del rilassamento)
 .eh_frame      0x0000000000416a30       0x78 contiki-native.a(watchdog.o)
                                         0x80 (dimensione prima del rilassamento)
 .eh_frame      0x0000000000416aa8       0xb8 contiki-native.a(stimer.o)
 .eh_frame      0x0000000000416b60      0x150 contiki-native.a(nullradio.o)
                                        0x130 (dimensione prima del rilassamento)
 .eh_frame      0x0000000000416cb0       0x80 contiki-native.a(memb.o)
                                         0x88 (dimensione prima del rilassamento)
 .eh_frame      0x0000000000416d30       0x30 contiki-native.a(random.o)
                                         0x48 (dimensione prima del rilassamento)
 .eh_frame      0x0000000000416d60      0x150 contiki-native.a(uip-icmp6.o)
                                        0x160 (dimensione prima del rilassamento)
 .eh_frame      0x0000000000416eb0       0x50 contiki-native.a(uip-udp-packet.)
                                         0x68 (dimensione prima del rilassamento)
 .eh_frame      0x0000000000416f00      0x210 contiki-native.a(rpl-icmp6.o)
                                        0x208 (dimensione prima del rilassamento)
 .eh_frame      0x0000000000417110       0x18 contiki-native.a(mac.o)
                                         0x30 (dimensione prima del rilassamento)
 .eh_frame      0x0000000000417128       0x60 /usr/lib/x86_64-linux-gnu/libc_nonshared.a(elf-init.oS)
                                         0x78 (dimensione prima del rilassamento)
 .eh_frame      0x0000000000417188        0x4 /usr/lib/gcc/x86_64-linux-gnu/5/crtend.o
 *(.eh_frame.*)

.gcc_except_table
 *(.gcc_except_table .gcc_except_table.*)

.gnu_extab
 *(.gnu_extab*)

.exception_ranges
 *(.exception_ranges .exception_ranges*)
                0x0000000000617e10                . = DATA_SEGMENT_ALIGN (0x200000, 0x1000)

.eh_frame
 *(.eh_frame)
 *(.eh_frame.*)

.gnu_extab
 *(.gnu_extab)

.gcc_except_table
 *(.gcc_except_table .gcc_except_table.*)

.exception_ranges
 *(.exception_ranges .exception_ranges*)

.tdata
 *(.tdata .tdata.* .gnu.linkonce.td.*)

.tbss
 *(.tbss .tbss.* .gnu.linkonce.tb.*)
 *(.tcommon)

.preinit_array  0x0000000000617e10        0x0
                [!provide]                        PROVIDE (__preinit_array_start, .)
 *(.preinit_array)
                [!provide]                        PROVIDE (__preinit_array_end, .)

.init_array     0x0000000000617e10        0x8
                0x0000000000617e10                PROVIDE (__init_array_start, .)
 *(SORT(.init_array.*) SORT(.ctors.*))
 *(.init_array EXCLUDE_FILE(*crtend?.o *crtend.o *crtbegin?.o *crtbegin.o) .ctors)
 .init_array    0x0000000000617e10        0x8 /usr/lib/gcc/x86_64-linux-gnu/5/crtbegin.o
                0x0000000000617e18                PROVIDE (__init_array_end, .)

.fini_array     0x0000000000617e18        0x8
                [!provide]                        PROVIDE (__fini_array_start, .)
 *(SORT(.fini_array.*) SORT(.dtors.*))
 *(.fini_array EXCLUDE_FILE(*crtend?.o *crtend.o *crtbegin?.o *crtbegin.o) .dtors)
 .fini_array    0x0000000000617e18        0x8 /usr/lib/gcc/x86_64-linux-gnu/5/crtbegin.o
                [!provide]                        PROVIDE (__fini_array_end, .)

.ctors
 *crtbegin.o(.ctors)
 *crtbegin?.o(.ctors)
 *(EXCLUDE_FILE(*crtend?.o *crtend.o) .ctors)
 *(SORT(.ctors.*))
 *(.ctors)

.dtors
 *crtbegin.o(.dtors)
 *crtbegin?.o(.dtors)
 *(EXCLUDE_FILE(*crtend?.o *crtend.o) .dtors)
 *(SORT(.dtors.*))
 *(.dtors)

.jcr            0x0000000000617e20        0x8
 *(.jcr)
 .jcr           0x0000000000617e20        0x0 /usr/lib/gcc/x86_64-linux-gnu/5/crtbegin.o
 .jcr           0x0000000000617e20        0x8 /usr/lib/gcc/x86_64-linux-gnu/5/crtend.o

.data.rel.ro
 *(.data.rel.ro.local* .gnu.linkonce.d.rel.ro.local.*)
 *(.data.rel.ro .data.rel.ro.* .gnu.linkonce.d.rel.ro.*)

.dynamic        0x0000000000617e28      0x1d0
 *(.dynamic)
 .dynamic       0x0000000000617e28      0x1d0 /usr/lib/gcc/x86_64-linux-gnu/5/../../../x86_64-linux-gnu/crt1.o
                0x0000000000617e28                _DYNAMIC

.got            0x0000000000617ff8        0x8
 *(.got)
 .got           0x0000000000617ff8        0x8 /usr/lib/gcc/x86_64-linux-gnu/5/../../../x86_64-linux-gnu/crt1.o
 *(.igot)
                0x0000000000618fe8                . = DATA_SEGMENT_RELRO_END (., (SIZEOF (.got.plt) >= 0x18)?0x18:0x0)

.got.plt        0x0000000000618000       0xd8
 *(.got.plt)
 .got.plt       0x0000000000618000       0xd8 /usr/lib/gcc/x86_64-linux-gnu/5/../../../x86_64-linux-gnu/crt1.o
                0x0000000000618000                _GLOBAL_OFFSET_TABLE_
 *(.igot.plt)
 .igot.plt      0x00000000006180d8        0x0 /usr/lib/gcc/x86_64-linux-gnu/5/../../../x86_64-linux-gnu/crt1.o

.data           0x00000000006180e0      0x419
 *(.data .data.* .gnu.linkonce.d.*)
 .data          0x00000000006180e0        0x4 /usr/lib/gcc/x86_64-linux-gnu/5/../../../x86_64-linux-gnu/crt1.o
                0x00000000006180e0                data_start
                0x00000000006180e0                __data_start
 .data          0x00000000006180e4        0x0 /usr/lib/gcc/x86_64-linux-gnu/5/../../../x86_64-linux-gnu/crti.o
 *fill*         0x00000000006180e4        0x4 
 .data          0x00000000006180e8        0x8 /usr/lib/gcc/x86_64-linux-gnu/5/crtbegin.o
                0x00000000006180e8                __dso_handle
 *fill*         0x00000000006180f0       0x10 
 .data          0x0000000000618100       0x20 receiver.co
                0x0000000000618100                unicast_receiver_process
 .data          0x0000000000618120       0x20 contiki-native.a(contiki-main.o)
                0x0000000000618120                sensors
 .data          0x0000000000618140        0x0 contiki-native.a(button-sensor.o)
 .data          0x0000000000618140        0x0 contiki-native.a(pir-sensor.o)
 .data          0x0000000000618140        0x0 contiki-native.a(vib-sensor.o)
 .data          0x0000000000618140       0x20 contiki-native.a(sensors.o)
                0x0000000000618140                sensors_process
 .data          0x0000000000618160       0x20 contiki-native.a(ctimer.o)
                0x0000000000618160                ctimer_process
 .data          0x0000000000618180        0x0 contiki-native.a(autostart.o)
 .data          0x0000000000618180       0x20 contiki-native.a(etimer.o)
                0x0000000000618180                etimer_process
 .data          0x00000000006181a0        0x0 contiki-native.a(process.o)
 .data          0x00000000006181a0        0x0 contiki-native.a(rtimer.o)
 .data          0x00000000006181a0        0x0 contiki-native.a(timer.o)
 .data          0x00000000006181a0       0x20 contiki-native.a(serial-line.o)
                0x00000000006181a0                serial_line_process
 .data          0x00000000006181c0        0x0 contiki-native.a(list.o)
 .data          0x00000000006181c0        0x0 contiki-native.a(ringbuf.o)
 .data          0x00000000006181c0        0x0 contiki-native.a(uip-ds6.o)
 .data          0x00000000006181c0       0x78 contiki-native.a(uip-ds6-route.o)
 .data          0x0000000000618238        0x0 contiki-native.a(uip6.o)
 *fill*         0x0000000000618238        0x8 
 .data          0x0000000000618240       0x28 contiki-native.a(uip-ds6-nbr.o)
                0x0000000000618240                ds6_neighbors
 *fill*         0x0000000000618268        0x8 
 .data          0x0000000000618270       0x38 contiki-native.a(uip-nd6.o)
 .data          0x00000000006182a8        0x0 contiki-native.a(sicslowpan.o)
 *fill*         0x00000000006182a8        0x8 
 .data          0x00000000006182b0       0x18 contiki-native.a(uip-packetqueue)
 .data          0x00000000006182c8        0x0 contiki-native.a(uip-debug.o)
 *fill*         0x00000000006182c8       0x18 
 .data          0x00000000006182e0       0x20 contiki-native.a(tcpip.o)
                0x00000000006182e0                tcpip_process
 .data          0x0000000000618300       0x20 contiki-native.a(simple-udp.o)
                0x0000000000618300                simple_udp_process
 .data          0x0000000000618320       0x28 contiki-native.a(rpl-dag.o)
                0x0000000000618320                rpl_parents
 .data          0x0000000000618348        0x0 contiki-native.a(rpl-timers.o)
 .data          0x0000000000618348        0x0 contiki-native.a(rpl.o)
 *fill*         0x0000000000618348       0x18 
 .data          0x0000000000618360       0x38 contiki-native.a(rpl-mrhof.o)
                0x0000000000618360                rpl_mrhof
 *fill*         0x0000000000618398        0x8 
 .data          0x00000000006183a0       0x38 contiki-native.a(queuebuf.o)
 *fill*         0x00000000006183d8        0x8 
 .data          0x00000000006183e0       0x18 contiki-native.a(nbr-table.o)
 .data          0x00000000006183f8        0x0 contiki-native.a(packetbuf.o)
 .data          0x00000000006183f8        0x0 contiki-native.a(netstack.o)
 .data          0x00000000006183f8        0x0 contiki-native.a(linkaddr.o)
 .data          0x00000000006183f8        0x0 contiki-native.a(nullmac.o)
 .data          0x00000000006183f8        0x0 contiki-native.a(framer-802154.o)
 .data          0x00000000006183f8        0x0 contiki-native.a(frame802154.o)
 .data          0x00000000006183f8        0x0 contiki-native.a(framer.o)
 .data          0x00000000006183f8        0x0 contiki-native.a(nullrdc.o)
 .data          0x00000000006183f8        0x0 contiki-native.a(nullsec.o)
 *fill*         0x00000000006183f8        0x8 
 .data          0x0000000000618400       0x38 contiki-native.a(servreg-hack.o)
                0x0000000000618400                servreg_hack_process
 .data          0x0000000000618438        0x0 contiki-native.a(clock.o)
 .data          0x0000000000618438        0x0 contiki-native.a(rtimer-arch.o)
 .data          0x0000000000618438        0x0 contiki-native.a(watchdog.o)
 .data          0x0000000000618438        0x0 contiki-native.a(stimer.o)
 .data          0x0000000000618438        0x0 contiki-native.a(nullradio.o)
 .data          0x0000000000618438        0x0 contiki-native.a(memb.o)
 .data          0x0000000000618438        0x0 contiki-native.a(random.o)
 *fill*         0x0000000000618438        0x8 
 .data          0x0000000000618440       0x38 contiki-native.a(uip-icmp6.o)
 .data          0x0000000000618478        0x0 contiki-native.a(uip-udp-packet.)
 *fill*         0x0000000000618478        0x8 
 .data          0x0000000000618480       0x79 contiki-native.a(rpl-icmp6.o)
 .data          0x00000000006184f9        0x0 contiki-native.a(mac.o)
 .data          0x00000000006184f9        0x0 /usr/lib/x86_64-linux-gnu/libc_nonshared.a(elf-init.oS)
 .data          0x00000000006184f9        0x0 /usr/lib/gcc/x86_64-linux-gnu/5/crtend.o
 .data          0x00000000006184f9        0x0 /usr/lib/gcc/x86_64-linux-gnu/5/../../../x86_64-linux-gnu/crtn.o

.tm_clone_table
                0x0000000000618500        0x0
 .tm_clone_table
                0x0000000000618500        0x0 /usr/lib/gcc/x86_64-linux-gnu/5/crtbegin.o
 .tm_clone_table
                0x0000000000618500        0x0 /usr/lib/gcc/x86_64-linux-gnu/5/crtend.o

.data1
 *(.data1)
                0x0000000000618500                _edata = .
                [!provide]                        PROVIDE (edata, .)
                0x0000000000618500                . = .
                0x0000000000618500                __bss_start = .

.bss            0x0000000000618500     0x48e8
 *(.dynbss)
 .dynbss        0x0000000000618500       0x28 /usr/lib/gcc/x86_64-linux-gnu/5/../../../x86_64-linux-gnu/crt1.o
                0x0000000000618500                stdout@@GLIBC_2.2.5
                0x0000000000618520                stderr@@GLIBC_2.2.5
 *(.bss .bss.* .gnu.linkonce.b.*)
 .bss           0x0000000000618528        0x0 /usr/lib/gcc/x86_64-linux-gnu/5/../../../x86_64-linux-gnu/crt1.o
 .bss           0x0000000000618528        0x0 /usr/lib/gcc/x86_64-linux-gnu/5/../../../x86_64-linux-gnu/crti.o
 .bss           0x0000000000618528        0x1 /usr/lib/gcc/x86_64-linux-gnu/5/crtbegin.o
 *fill*         0x0000000000618529       0x17 
 .bss           0x0000000000618540       0x58 receiver.co
 *fill*         0x0000000000618598        0x8 
 .bss           0x00000000006185a0       0x60 contiki-native.a(contiki-main.o)
                0x00000000006185a0                contiki_argc
 .bss           0x0000000000618600        0x0 contiki-native.a(button-sensor.o)
 .bss           0x0000000000618600        0x4 contiki-native.a(pir-sensor.o)
 .bss           0x0000000000618604        0x4 contiki-native.a(vib-sensor.o)
 .bss           0x0000000000618608        0x9 contiki-native.a(sensors.o)
 *fill*         0x0000000000618611        0x7 
 .bss           0x0000000000618618       0x10 contiki-native.a(ctimer.o)
 .bss           0x0000000000618628        0x0 contiki-native.a(autostart.o)
 .bss           0x0000000000618628       0x10 contiki-native.a(etimer.o)
 *fill*         0x0000000000618638        0x8 
 .bss           0x0000000000618640      0x343 contiki-native.a(process.o)
                0x0000000000618640                process_current
                0x0000000000618648                process_list
 *fill*         0x0000000000618983        0x5 
 .bss           0x0000000000618988        0x8 contiki-native.a(rtimer.o)
 .bss           0x0000000000618990        0x0 contiki-native.a(timer.o)
 *fill*         0x0000000000618990       0x10 
 .bss           0x00000000006189a0      0x150 contiki-native.a(serial-line.o)
 .bss           0x0000000000618af0        0x0 contiki-native.a(list.o)
 .bss           0x0000000000618af0        0x0 contiki-native.a(ringbuf.o)
 .bss           0x0000000000618af0       0x30 contiki-native.a(uip-ds6.o)
 .bss           0x0000000000618b20      0xc40 contiki-native.a(uip-ds6-route.o)
 .bss           0x0000000000619760        0xd contiki-native.a(uip6.o)
                0x0000000000619760                uip_ext_opt_offset
                0x0000000000619761                uip_ext_len
                0x0000000000619762                uip_ext_bitmap
 *fill*         0x000000000061976d       0x13 
 .bss           0x0000000000619780      0x780 contiki-native.a(uip-ds6-nbr.o)
 .bss           0x0000000000619f00       0x19 contiki-native.a(uip-nd6.o)
 *fill*         0x0000000000619f19        0x7 
 .bss           0x0000000000619f20      0x220 contiki-native.a(sicslowpan.o)
 .bss           0x000000000061a140      0x3f2 contiki-native.a(uip-packetqueue)
 .bss           0x000000000061a532        0x0 contiki-native.a(uip-debug.o)
 *fill*         0x000000000061a532        0xe 
 .bss           0x000000000061a540      0x2e0 contiki-native.a(tcpip.o)
 .bss           0x000000000061a820      0x1a5 contiki-native.a(simple-udp.o)
 *fill*         0x000000000061a9c5       0x1b 
 .bss           0x000000000061a9e0      0x4b0 contiki-native.a(rpl-dag.o)
 *fill*         0x000000000061ae90       0x10 
 .bss           0x000000000061aea0       0x60 contiki-native.a(rpl-timers.o)
 .bss           0x000000000061af00        0x4 contiki-native.a(rpl.o)
 .bss           0x000000000061af04        0x0 contiki-native.a(rpl-mrhof.o)
 *fill*         0x000000000061af04       0x1c 
 .bss           0x000000000061af20      0x5e8 contiki-native.a(queuebuf.o)
 *fill*         0x000000000061b508       0x18 
 .bss           0x000000000061b520      0x2be contiki-native.a(nbr-table.o)
 *fill*         0x000000000061b7de        0x2 
 .bss           0x000000000061b7e0       0xd6 contiki-native.a(packetbuf.o)
 .bss           0x000000000061b8b6        0x0 contiki-native.a(netstack.o)
 .bss           0x000000000061b8b6        0x0 contiki-native.a(linkaddr.o)
 .bss           0x000000000061b8b6        0x0 contiki-native.a(nullmac.o)
 .bss           0x000000000061b8b6        0x2 contiki-native.a(framer-802154.o)
 .bss           0x000000000061b8b8        0x0 contiki-native.a(frame802154.o)
 .bss           0x000000000061b8b8        0x0 contiki-native.a(framer.o)
 .bss           0x000000000061b8b8        0x0 contiki-native.a(nullrdc.o)
 .bss           0x000000000061b8b8        0x0 contiki-native.a(nullsec.o)
 *fill*         0x000000000061b8b8        0x8 
 .bss           0x000000000061b8c0      0x380 contiki-native.a(servreg-hack.o)
 .bss           0x000000000061bc40        0x0 contiki-native.a(clock.o)
 .bss           0x000000000061bc40        0x0 contiki-native.a(rtimer-arch.o)
 .bss           0x000000000061bc40        0x0 contiki-native.a(watchdog.o)
 .bss           0x000000000061bc40        0x0 contiki-native.a(stimer.o)
 .bss           0x000000000061bc40        0x0 contiki-native.a(nullradio.o)
 .bss           0x000000000061bc40        0x0 contiki-native.a(memb.o)
 .bss           0x000000000061bc40        0x0 contiki-native.a(random.o)
 .bss           0x000000000061bc40       0x20 contiki-native.a(uip-icmp6.o)
 .bss           0x000000000061bc60        0x0 contiki-native.a(uip-udp-packet.)
 .bss           0x000000000061bc60        0x0 contiki-native.a(rpl-icmp6.o)
 .bss           0x000000000061bc60        0x0 contiki-native.a(mac.o)
 .bss           0x000000000061bc60        0x0 /usr/lib/x86_64-linux-gnu/libc_nonshared.a(elf-init.oS)
 .bss           0x000000000061bc60        0x0 /usr/lib/gcc/x86_64-linux-gnu/5/crtend.o
 .bss           0x000000000061bc60        0x0 /usr/lib/gcc/x86_64-linux-gnu/5/../../../x86_64-linux-gnu/crtn.o
 *(COMMON)
 COMMON         0x000000000061bc60        0xc contiki-native.a(contiki-main.o)
                0x000000000061bc60                contiki_argv
                0x000000000061bc68                sensors_flags
 COMMON         0x000000000061bc6c        0x1 contiki-native.a(sensors.o)
                0x000000000061bc6c                sensors_event
 COMMON         0x000000000061bc6d        0x1 contiki-native.a(serial-line.o)
                0x000000000061bc6d                serial_line_event_message
 *fill*         0x000000000061bc6e       0x12 
 COMMON         0x000000000061bc80      0x1c1 contiki-native.a(uip-ds6.o)
                0x000000000061bc80                uip_ds6_prefix_list
                0x000000000061bce0                uip_ds6_timer_periodic
                0x000000000061bd00                uip_ds6_netif_addr_list_offset
                0x000000000061bd20                uip_ds6_if
                0x000000000061be30                uip_ds6_timer_ra
                0x000000000061be40                uip_ds6_addr_size
 *fill*         0x000000000061be41       0x1f 
 COMMON         0x000000000061be60      0xd38 contiki-native.a(uip6.o)
                0x000000000061be60                uip_slen
                0x000000000061be62                uip_acc32
                0x000000000061be80                uip_conns
                0x000000000061c740                uip_icmp6_conns
                0x000000000061c750                uip_lladdr
                0x000000000061c758                uip_appdata
                0x000000000061c760                uip_flags
                0x000000000061c780                uip_aligned_buf
                0x000000000061c940                uip_listenports
                0x000000000061c990                uip_len
                0x000000000061c998                uip_sappdata
                0x000000000061c9a0                uip_udp_conns
                0x000000000061cb80                uip_udp_conn
                0x000000000061cb88                uip_next_hdr
                0x000000000061cb90                uip_conn
 COMMON         0x000000000061cb98        0x8 contiki-native.a(sicslowpan.o)
                0x000000000061cb98                frag_sender
 COMMON         0x000000000061cba0        0x2 contiki-native.a(tcpip.o)
                0x000000000061cba0                tcpip_icmp6_event
                0x000000000061cba1                tcpip_event
 *fill*         0x000000000061cba2       0x1e 
 COMMON         0x000000000061cbc0      0x1f0 contiki-native.a(rpl-dag.o)
                0x000000000061cbc0                default_instance
                0x000000000061cbe0                instance_table
 COMMON         0x000000000061cdb0       0x30 contiki-native.a(packetbuf.o)
                0x000000000061cdb0                packetbuf_attrs
                0x000000000061cdd0                packetbuf_addrs
 COMMON         0x000000000061cde0        0x8 contiki-native.a(linkaddr.o)
                0x000000000061cde0                linkaddr_node_addr
                0x000000000061cde8                . = ALIGN ((. != 0x0)?0x8:0x1)

.lbss
 *(.dynlbss)
 *(.lbss .lbss.* .gnu.linkonce.lb.*)
 *(LARGE_COMMON)
                0x000000000061cde8                . = ALIGN (0x8)
                0x000000000061cde8                . = SEGMENT_START ("ldata-segment", .)

.lrodata
 *(.lrodata .lrodata.* .gnu.linkonce.lr.*)

.ldata          0x0000000000a1cde8        0x0
 *(.ldata .ldata.* .gnu.linkonce.l.*)
                0x0000000000a1cde8                . = ALIGN ((. != 0x0)?0x8:0x1)
                0x0000000000a1cde8                . = ALIGN (0x8)
                0x0000000000a1cde8                _end = .
                [!provide]                        PROVIDE (end, .)
                0x0000000000a1cde8                . = DATA_SEGMENT_END (.)

.stab
 *(.stab)

.stabstr
 *(.stabstr)

.stab.excl
 *(.stab.excl)

.stab.exclstr
 *(.stab.exclstr)

.stab.index
 *(.stab.index)

.stab.indexstr
 *(.stab.indexstr)

.comment        0x0000000000000000       0x35
 *(.comment)
 .comment       0x0000000000000000       0x35 /usr/lib/gcc/x86_64-linux-gnu/5/crtbegin.o
                                         0x36 (dimensione prima del rilassamento)
 .comment       0x0000000000000035       0x36 receiver.co
 .comment       0x0000000000000035       0x36 contiki-native.a(contiki-main.o)
 .comment       0x0000000000000035       0x36 contiki-native.a(button-sensor.o)
 .comment       0x0000000000000035       0x36 contiki-native.a(pir-sensor.o)
 .comment       0x0000000000000035       0x36 contiki-native.a(vib-sensor.o)
 .comment       0x0000000000000035       0x36 contiki-native.a(sensors.o)
 .comment       0x0000000000000035       0x36 contiki-native.a(ctimer.o)
 .comment       0x0000000000000035       0x36 contiki-native.a(autostart.o)
 .comment       0x0000000000000035       0x36 contiki-native.a(etimer.o)
 .comment       0x0000000000000035       0x36 contiki-native.a(process.o)
 .comment       0x0000000000000035       0x36 contiki-native.a(rtimer.o)
 .comment       0x0000000000000035       0x36 contiki-native.a(timer.o)
 .comment       0x0000000000000035       0x36 contiki-native.a(serial-line.o)
 .comment       0x0000000000000035       0x36 contiki-native.a(list.o)
 .comment       0x0000000000000035       0x36 contiki-native.a(ringbuf.o)
 .comment       0x0000000000000035       0x36 contiki-native.a(uip-ds6.o)
 .comment       0x0000000000000035       0x36 contiki-native.a(uip-ds6-route.o)
 .comment       0x0000000000000035       0x36 contiki-native.a(uip6.o)
 .comment       0x0000000000000035       0x36 contiki-native.a(uip-ds6-nbr.o)
 .comment       0x0000000000000035       0x36 contiki-native.a(uip-nd6.o)
 .comment       0x0000000000000035       0x36 contiki-native.a(sicslowpan.o)
 .comment       0x0000000000000035       0x36 contiki-native.a(uip-packetqueue)
 .comment       0x0000000000000035       0x36 contiki-native.a(uip-debug.o)
 .comment       0x0000000000000035       0x36 contiki-native.a(tcpip.o)
 .comment       0x0000000000000035       0x36 contiki-native.a(simple-udp.o)
 .comment       0x0000000000000035       0x36 contiki-native.a(rpl-dag.o)
 .comment       0x0000000000000035       0x36 contiki-native.a(rpl-timers.o)
 .comment       0x0000000000000035       0x36 contiki-native.a(rpl.o)
 .comment       0x0000000000000035       0x36 contiki-native.a(rpl-mrhof.o)
 .comment       0x0000000000000035       0x36 contiki-native.a(queuebuf.o)
 .comment       0x0000000000000035       0x36 contiki-native.a(nbr-table.o)
 .comment       0x0000000000000035       0x36 contiki-native.a(packetbuf.o)
 .comment       0x0000000000000035       0x36 contiki-native.a(netstack.o)
 .comment       0x0000000000000035       0x36 contiki-native.a(linkaddr.o)
 .comment       0x0000000000000035       0x36 contiki-native.a(nullmac.o)
 .comment       0x0000000000000035       0x36 contiki-native.a(framer-802154.o)
 .comment       0x0000000000000035       0x36 contiki-native.a(frame802154.o)
 .comment       0x0000000000000035       0x36 contiki-native.a(framer.o)
 .comment       0x0000000000000035       0x36 contiki-native.a(nullrdc.o)
 .comment       0x0000000000000035       0x36 contiki-native.a(nullsec.o)
 .comment       0x0000000000000035       0x36 contiki-native.a(servreg-hack.o)
 .comment       0x0000000000000035       0x36 contiki-native.a(clock.o)
 .comment       0x0000000000000035       0x36 contiki-native.a(rtimer-arch.o)
 .comment       0x0000000000000035       0x36 contiki-native.a(watchdog.o)
 .comment       0x0000000000000035       0x36 contiki-native.a(stimer.o)
 .comment       0x0000000000000035       0x36 contiki-native.a(nullradio.o)
 .comment       0x0000000000000035       0x36 contiki-native.a(memb.o)
 .comment       0x0000000000000035       0x36 contiki-native.a(random.o)
 .comment       0x0000000000000035       0x36 contiki-native.a(uip-icmp6.o)
 .comment       0x0000000000000035       0x36 contiki-native.a(uip-udp-packet.)
 .comment       0x0000000000000035       0x36 contiki-native.a(rpl-icmp6.o)
 .comment       0x0000000000000035       0x36 contiki-native.a(mac.o)
 .comment       0x0000000000000035       0x36 /usr/lib/gcc/x86_64-linux-gnu/5/crtend.o

.debug
 *(.debug)

.line
 *(.line)

.debug_srcinfo
 *(.debug_srcinfo)

.debug_sfnames
 *(.debug_sfnames)

.debug_aranges  0x0000000000000000      0x9c0
 *(.debug_aranges)
 .debug_aranges
                0x0000000000000000       0x30 receiver.co
 .debug_aranges
                0x0000000000000030       0x30 contiki-native.a(contiki-main.o)
 .debug_aranges
                0x0000000000000060       0x30 contiki-native.a(button-sensor.o)
 .debug_aranges
                0x0000000000000090       0x30 contiki-native.a(pir-sensor.o)
 .debug_aranges
                0x00000000000000c0       0x30 contiki-native.a(vib-sensor.o)
 .debug_aranges
                0x00000000000000f0       0x30 contiki-native.a(sensors.o)
 .debug_aranges
                0x0000000000000120       0x30 contiki-native.a(ctimer.o)
 .debug_aranges
                0x0000000000000150       0x30 contiki-native.a(autostart.o)
 .debug_aranges
                0x0000000000000180       0x30 contiki-native.a(etimer.o)
 .debug_aranges
                0x00000000000001b0       0x30 contiki-native.a(process.o)
 .debug_aranges
                0x00000000000001e0       0x30 contiki-native.a(rtimer.o)
 .debug_aranges
                0x0000000000000210       0x30 contiki-native.a(timer.o)
 .debug_aranges
                0x0000000000000240       0x30 contiki-native.a(serial-line.o)
 .debug_aranges
                0x0000000000000270       0x30 contiki-native.a(list.o)
 .debug_aranges
                0x00000000000002a0       0x30 contiki-native.a(ringbuf.o)
 .debug_aranges
                0x00000000000002d0       0x30 contiki-native.a(uip-ds6.o)
 .debug_aranges
                0x0000000000000300       0x30 contiki-native.a(uip-ds6-route.o)
 .debug_aranges
                0x0000000000000330       0x30 contiki-native.a(uip6.o)
 .debug_aranges
                0x0000000000000360       0x30 contiki-native.a(uip-ds6-nbr.o)
 .debug_aranges
                0x0000000000000390       0x30 contiki-native.a(uip-nd6.o)
 .debug_aranges
                0x00000000000003c0       0x30 contiki-native.a(sicslowpan.o)
 .debug_aranges
                0x00000000000003f0       0x30 contiki-native.a(uip-packetqueue)
 .debug_aranges
                0x0000000000000420       0x30 contiki-native.a(uip-debug.o)
 .debug_aranges
                0x0000000000000450       0x30 contiki-native.a(tcpip.o)
 .debug_aranges
                0x0000000000000480       0x30 contiki-native.a(simple-udp.o)
 .debug_aranges
                0x00000000000004b0       0x30 contiki-native.a(rpl-dag.o)
 .debug_aranges
                0x00000000000004e0       0x30 contiki-native.a(rpl-timers.o)
 .debug_aranges
                0x0000000000000510       0x30 contiki-native.a(rpl.o)
 .debug_aranges
                0x0000000000000540       0x30 contiki-native.a(rpl-mrhof.o)
 .debug_aranges
                0x0000000000000570       0x30 contiki-native.a(queuebuf.o)
 .debug_aranges
                0x00000000000005a0       0x30 contiki-native.a(nbr-table.o)
 .debug_aranges
                0x00000000000005d0       0x30 contiki-native.a(packetbuf.o)
 .debug_aranges
                0x0000000000000600       0x30 contiki-native.a(netstack.o)
 .debug_aranges
                0x0000000000000630       0x30 contiki-native.a(linkaddr.o)
 .debug_aranges
                0x0000000000000660       0x30 contiki-native.a(nullmac.o)
 .debug_aranges
                0x0000000000000690       0x30 contiki-native.a(framer-802154.o)
 .debug_aranges
                0x00000000000006c0       0x30 contiki-native.a(frame802154.o)
 .debug_aranges
                0x00000000000006f0       0x30 contiki-native.a(framer.o)
 .debug_aranges
                0x0000000000000720       0x30 contiki-native.a(nullrdc.o)
 .debug_aranges
                0x0000000000000750       0x30 contiki-native.a(nullsec.o)
 .debug_aranges
                0x0000000000000780       0x30 contiki-native.a(servreg-hack.o)
 .debug_aranges
                0x00000000000007b0       0x30 contiki-native.a(clock.o)
 .debug_aranges
                0x00000000000007e0       0x30 contiki-native.a(rtimer-arch.o)
 .debug_aranges
                0x0000000000000810       0x30 contiki-native.a(watchdog.o)
 .debug_aranges
                0x0000000000000840       0x30 contiki-native.a(stimer.o)
 .debug_aranges
                0x0000000000000870       0x30 contiki-native.a(nullradio.o)
 .debug_aranges
                0x00000000000008a0       0x30 contiki-native.a(memb.o)
 .debug_aranges
                0x00000000000008d0       0x30 contiki-native.a(random.o)
 .debug_aranges
                0x0000000000000900       0x30 contiki-native.a(uip-icmp6.o)
 .debug_aranges
                0x0000000000000930       0x30 contiki-native.a(uip-udp-packet.)
 .debug_aranges
                0x0000000000000960       0x30 contiki-native.a(rpl-icmp6.o)
 .debug_aranges
                0x0000000000000990       0x30 contiki-native.a(mac.o)

.debug_pubnames
 *(.debug_pubnames)

.debug_info     0x0000000000000000    0x21911
 *(.debug_info .gnu.linkonce.wi.*)
 .debug_info    0x0000000000000000     0x1251 receiver.co
 .debug_info    0x0000000000001251     0x1339 contiki-native.a(contiki-main.o)
 .debug_info    0x000000000000258a      0x1de contiki-native.a(button-sensor.o)
 .debug_info    0x0000000000002768      0x200 contiki-native.a(pir-sensor.o)
 .debug_info    0x0000000000002968      0x1f1 contiki-native.a(vib-sensor.o)
 .debug_info    0x0000000000002b59      0x4c7 contiki-native.a(sensors.o)
 .debug_info    0x0000000000003020      0x6ed contiki-native.a(ctimer.o)
 .debug_info    0x000000000000370d      0x1f6 contiki-native.a(autostart.o)
 .debug_info    0x0000000000003903      0x6ac contiki-native.a(etimer.o)
 .debug_info    0x0000000000003faf      0x8e6 contiki-native.a(process.o)
 .debug_info    0x0000000000004895      0x221 contiki-native.a(rtimer.o)
 .debug_info    0x0000000000004ab6      0x1e4 contiki-native.a(timer.o)
 .debug_info    0x0000000000004c9a      0x49f contiki-native.a(serial-line.o)
 .debug_info    0x0000000000005139      0x3be contiki-native.a(list.o)
 .debug_info    0x00000000000054f7      0x1d5 contiki-native.a(ringbuf.o)
 .debug_info    0x00000000000056cc     0x1340 contiki-native.a(uip-ds6.o)
 .debug_info    0x0000000000006a0c     0x1a17 contiki-native.a(uip-ds6-route.o)
 .debug_info    0x0000000000008423     0x1a34 contiki-native.a(uip6.o)
 .debug_info    0x0000000000009e57     0x10fd contiki-native.a(uip-ds6-nbr.o)
 .debug_info    0x000000000000af54     0x10f6 contiki-native.a(uip-nd6.o)
 .debug_info    0x000000000000c04a     0x1fbb contiki-native.a(sicslowpan.o)
 .debug_info    0x000000000000e005      0x781 contiki-native.a(uip-packetqueue)
 .debug_info    0x000000000000e786      0x626 contiki-native.a(uip-debug.o)
 .debug_info    0x000000000000edac     0x1c35 contiki-native.a(tcpip.o)
 .debug_info    0x00000000000109e1      0x8ca contiki-native.a(simple-udp.o)
 .debug_info    0x00000000000112ab     0x3201 contiki-native.a(rpl-dag.o)
 .debug_info    0x00000000000144ac     0x1336 contiki-native.a(rpl-timers.o)
 .debug_info    0x00000000000157e2     0x1206 contiki-native.a(rpl.o)
 .debug_info    0x00000000000169e8      0xd93 contiki-native.a(rpl-mrhof.o)
 .debug_info    0x000000000001777b      0x8bd contiki-native.a(queuebuf.o)
 .debug_info    0x0000000000018038      0xfae contiki-native.a(nbr-table.o)
 .debug_info    0x0000000000018fe6      0xa11 contiki-native.a(packetbuf.o)
 .debug_info    0x00000000000199f7      0x47c contiki-native.a(netstack.o)
 .debug_info    0x0000000000019e73      0x251 contiki-native.a(linkaddr.o)
 .debug_info    0x000000000001a0c4      0x3e3 contiki-native.a(nullmac.o)
 .debug_info    0x000000000001a4a7      0x915 contiki-native.a(framer-802154.o)
 .debug_info    0x000000000001adbc      0x6b5 contiki-native.a(frame802154.o)
 .debug_info    0x000000000001b471      0x205 contiki-native.a(framer.o)
 .debug_info    0x000000000001b676      0x8b4 contiki-native.a(nullrdc.o)
 .debug_info    0x000000000001bf2a      0x3cb contiki-native.a(nullsec.o)
 .debug_info    0x000000000001c2f5     0x1292 contiki-native.a(servreg-hack.o)
 .debug_info    0x000000000001d587      0x1d9 contiki-native.a(clock.o)
 .debug_info    0x000000000001d760      0x29c contiki-native.a(rtimer-arch.o)
 .debug_info    0x000000000001d9fc      0x124 contiki-native.a(watchdog.o)
 .debug_info    0x000000000001db20      0x206 contiki-native.a(stimer.o)
 .debug_info    0x000000000001dd26      0x526 contiki-native.a(nullradio.o)
 .debug_info    0x000000000001e24c      0x2d3 contiki-native.a(memb.o)
 .debug_info    0x000000000001e51f      0x10f contiki-native.a(random.o)
 .debug_info    0x000000000001e62e      0xbb9 contiki-native.a(uip-icmp6.o)
 .debug_info    0x000000000001f1e7      0x4cf contiki-native.a(uip-udp-packet.)
 .debug_info    0x000000000001f6b6     0x2107 contiki-native.a(rpl-icmp6.o)
 .debug_info    0x00000000000217bd      0x154 contiki-native.a(mac.o)

.debug_abbrev   0x0000000000000000     0x743e
 *(.debug_abbrev)
 .debug_abbrev  0x0000000000000000      0x318 receiver.co
 .debug_abbrev  0x0000000000000318      0x3f1 contiki-native.a(contiki-main.o)
 .debug_abbrev  0x0000000000000709       0xe6 contiki-native.a(button-sensor.o)
 .debug_abbrev  0x00000000000007ef      0x113 contiki-native.a(pir-sensor.o)
 .debug_abbrev  0x0000000000000902      0x104 contiki-native.a(vib-sensor.o)
 .debug_abbrev  0x0000000000000a06      0x283 contiki-native.a(sensors.o)
 .debug_abbrev  0x0000000000000c89      0x1e9 contiki-native.a(ctimer.o)
 .debug_abbrev  0x0000000000000e72      0x116 contiki-native.a(autostart.o)
 .debug_abbrev  0x0000000000000f88      0x276 contiki-native.a(etimer.o)
 .debug_abbrev  0x00000000000011fe      0x33b contiki-native.a(process.o)
 .debug_abbrev  0x0000000000001539      0x16a contiki-native.a(rtimer.o)
 .debug_abbrev  0x00000000000016a3       0xec contiki-native.a(timer.o)
 .debug_abbrev  0x000000000000178f      0x20c contiki-native.a(serial-line.o)
 .debug_abbrev  0x000000000000199b      0x18b contiki-native.a(list.o)
 .debug_abbrev  0x0000000000001b26       0xea contiki-native.a(ringbuf.o)
 .debug_abbrev  0x0000000000001c10      0x2d0 contiki-native.a(uip-ds6.o)
 .debug_abbrev  0x0000000000001ee0      0x376 contiki-native.a(uip-ds6-route.o)
 .debug_abbrev  0x0000000000002256      0x38e contiki-native.a(uip6.o)
 .debug_abbrev  0x00000000000025e4      0x2d1 contiki-native.a(uip-ds6-nbr.o)
 .debug_abbrev  0x00000000000028b5      0x35d contiki-native.a(uip-nd6.o)
 .debug_abbrev  0x0000000000002c12      0x459 contiki-native.a(sicslowpan.o)
 .debug_abbrev  0x000000000000306b      0x218 contiki-native.a(uip-packetqueue)
 .debug_abbrev  0x0000000000003283      0x1b4 contiki-native.a(uip-debug.o)
 .debug_abbrev  0x0000000000003437      0x47f contiki-native.a(tcpip.o)
 .debug_abbrev  0x00000000000038b6      0x291 contiki-native.a(simple-udp.o)
 .debug_abbrev  0x0000000000003b47      0x53e contiki-native.a(rpl-dag.o)
 .debug_abbrev  0x0000000000004085      0x30d contiki-native.a(rpl-timers.o)
 .debug_abbrev  0x0000000000004392      0x324 contiki-native.a(rpl.o)
 .debug_abbrev  0x00000000000046b6      0x25f contiki-native.a(rpl-mrhof.o)
 .debug_abbrev  0x0000000000004915      0x24c contiki-native.a(queuebuf.o)
 .debug_abbrev  0x0000000000004b61      0x2f7 contiki-native.a(nbr-table.o)
 .debug_abbrev  0x0000000000004e58      0x30b contiki-native.a(packetbuf.o)
 .debug_abbrev  0x0000000000005163      0x104 contiki-native.a(netstack.o)
 .debug_abbrev  0x0000000000005267      0x16d contiki-native.a(linkaddr.o)
 .debug_abbrev  0x00000000000053d4      0x192 contiki-native.a(nullmac.o)
 .debug_abbrev  0x0000000000005566      0x21b contiki-native.a(framer-802154.o)
 .debug_abbrev  0x0000000000005781      0x248 contiki-native.a(frame802154.o)
 .debug_abbrev  0x00000000000059c9       0xe4 contiki-native.a(framer.o)
 .debug_abbrev  0x0000000000005aad      0x2ae contiki-native.a(nullrdc.o)
 .debug_abbrev  0x0000000000005d5b      0x183 contiki-native.a(nullsec.o)
 .debug_abbrev  0x0000000000005ede      0x3d3 contiki-native.a(servreg-hack.o)
 .debug_abbrev  0x00000000000062b1       0xfb contiki-native.a(clock.o)
 .debug_abbrev  0x00000000000063ac      0x12b contiki-native.a(rtimer-arch.o)
 .debug_abbrev  0x00000000000064d7       0x87 contiki-native.a(watchdog.o)
 .debug_abbrev  0x000000000000655e       0xd0 contiki-native.a(stimer.o)
 .debug_abbrev  0x000000000000662e      0x176 contiki-native.a(nullradio.o)
 .debug_abbrev  0x00000000000067a4      0x157 contiki-native.a(memb.o)
 .debug_abbrev  0x00000000000068fb       0xa2 contiki-native.a(random.o)
 .debug_abbrev  0x000000000000699d      0x354 contiki-native.a(uip-icmp6.o)
 .debug_abbrev  0x0000000000006cf1      0x23a contiki-native.a(uip-udp-packet.)
 .debug_abbrev  0x0000000000006f2b      0x456 contiki-native.a(rpl-icmp6.o)
 .debug_abbrev  0x0000000000007381       0xbd contiki-native.a(mac.o)

.debug_line     0x0000000000000000     0x7368
 *(.debug_line .debug_line.* .debug_line_end)
 .debug_line    0x0000000000000000      0x300 receiver.co
 .debug_line    0x0000000000000300      0x4bd contiki-native.a(contiki-main.o)
 .debug_line    0x00000000000007bd       0xa1 contiki-native.a(button-sensor.o)
 .debug_line    0x000000000000085e       0x9f contiki-native.a(pir-sensor.o)
 .debug_line    0x00000000000008fd       0x9f contiki-native.a(vib-sensor.o)
 .debug_line    0x000000000000099c      0x17b contiki-native.a(sensors.o)
 .debug_line    0x0000000000000b17      0x181 contiki-native.a(ctimer.o)
 .debug_line    0x0000000000000c98       0xb8 contiki-native.a(autostart.o)
 .debug_line    0x0000000000000d50      0x18d contiki-native.a(etimer.o)
 .debug_line    0x0000000000000edd      0x1ec contiki-native.a(process.o)
 .debug_line    0x00000000000010c9       0x9c contiki-native.a(rtimer.o)
 .debug_line    0x0000000000001165       0xdf contiki-native.a(timer.o)
 .debug_line    0x0000000000001244      0x127 contiki-native.a(serial-line.o)
 .debug_line    0x000000000000136b      0x108 contiki-native.a(list.o)
 .debug_line    0x0000000000001473       0xbd contiki-native.a(ringbuf.o)
 .debug_line    0x0000000000001530      0x42d contiki-native.a(uip-ds6.o)
 .debug_line    0x000000000000195d      0x41b contiki-native.a(uip-ds6-route.o)
 .debug_line    0x0000000000001d78      0x757 contiki-native.a(uip6.o)
 .debug_line    0x00000000000024cf      0x335 contiki-native.a(uip-ds6-nbr.o)
 .debug_line    0x0000000000002804      0x475 contiki-native.a(uip-nd6.o)
 .debug_line    0x0000000000002c79      0x74e contiki-native.a(sicslowpan.o)
 .debug_line    0x00000000000033c7      0x223 contiki-native.a(uip-packetqueue)
 .debug_line    0x00000000000035ea      0x193 contiki-native.a(uip-debug.o)
 .debug_line    0x000000000000377d      0x44d contiki-native.a(tcpip.o)
 .debug_line    0x0000000000003bca      0x1d4 contiki-native.a(simple-udp.o)
 .debug_line    0x0000000000003d9e      0x7dc contiki-native.a(rpl-dag.o)
 .debug_line    0x000000000000457a      0x38a contiki-native.a(rpl-timers.o)
 .debug_line    0x0000000000004904      0x355 contiki-native.a(rpl.o)
 .debug_line    0x0000000000004c59      0x2d6 contiki-native.a(rpl-mrhof.o)
 .debug_line    0x0000000000004f2f      0x136 contiki-native.a(queuebuf.o)
 .debug_line    0x0000000000005065      0x264 contiki-native.a(nbr-table.o)
 .debug_line    0x00000000000052c9      0x1f1 contiki-native.a(packetbuf.o)
 .debug_line    0x00000000000054ba      0x120 contiki-native.a(netstack.o)
 .debug_line    0x00000000000055da      0x114 contiki-native.a(linkaddr.o)
 .debug_line    0x00000000000056ee      0x117 contiki-native.a(nullmac.o)
 .debug_line    0x0000000000005805      0x209 contiki-native.a(framer-802154.o)
 .debug_line    0x0000000000005a0e      0x20d contiki-native.a(frame802154.o)
 .debug_line    0x0000000000005c1b      0x120 contiki-native.a(framer.o)
 .debug_line    0x0000000000005d3b      0x1a1 contiki-native.a(nullrdc.o)
 .debug_line    0x0000000000005edc      0x122 contiki-native.a(nullsec.o)
 .debug_line    0x0000000000005ffe      0x32f contiki-native.a(servreg-hack.o)
 .debug_line    0x000000000000632d       0xe4 contiki-native.a(clock.o)
 .debug_line    0x0000000000006411      0x127 contiki-native.a(rtimer-arch.o)
 .debug_line    0x0000000000006538       0x7e contiki-native.a(watchdog.o)
 .debug_line    0x00000000000065b6       0xad contiki-native.a(stimer.o)
 .debug_line    0x0000000000006663       0xd7 contiki-native.a(nullradio.o)
 .debug_line    0x000000000000673a      0x13c contiki-native.a(memb.o)
 .debug_line    0x0000000000006876       0x77 contiki-native.a(random.o)
 .debug_line    0x00000000000068ed      0x2d7 contiki-native.a(uip-icmp6.o)
 .debug_line    0x0000000000006bc4      0x184 contiki-native.a(uip-udp-packet.)
 .debug_line    0x0000000000006d48      0x590 contiki-native.a(rpl-icmp6.o)
 .debug_line    0x00000000000072d8       0x90 contiki-native.a(mac.o)

.debug_frame
 *(.debug_frame)

.debug_str      0x0000000000000000     0x4a28
 *(.debug_str)
 .debug_str     0x0000000000000000      0x895 receiver.co
                                        0xa4d (dimensione prima del rilassamento)
 .debug_str     0x0000000000000895      0x3a5 contiki-native.a(contiki-main.o)
                                        0x812 (dimensione prima del rilassamento)
 .debug_str     0x0000000000000c3a       0x55 contiki-native.a(button-sensor.o)
                                        0x17f (dimensione prima del rilassamento)
 .debug_str     0x0000000000000c8f       0x5b contiki-native.a(pir-sensor.o)
                                        0x192 (dimensione prima del rilassamento)
 .debug_str     0x0000000000000cea       0x48 contiki-native.a(vib-sensor.o)
                                        0x17f (dimensione prima del rilassamento)
 .debug_str     0x0000000000000d32       0xcf contiki-native.a(sensors.o)
                                        0x2a1 (dimensione prima del rilassamento)
 .debug_str     0x0000000000000e01      0x133 contiki-native.a(ctimer.o)
                                        0x2f2 (dimensione prima del rilassamento)
 .debug_str     0x0000000000000f34       0x45 contiki-native.a(autostart.o)
                                        0x1ab (dimensione prima del rilassamento)
 .debug_str     0x0000000000000f79       0xf6 contiki-native.a(etimer.o)
                                        0x33c (dimensione prima del rilassamento)
 .debug_str     0x000000000000106f       0xf9 contiki-native.a(process.o)
                                        0x44b (dimensione prima del rilassamento)
 .debug_str     0x0000000000001168       0xe4 contiki-native.a(rtimer.o)
                                        0x1f8 (dimensione prima del rilassamento)
 .debug_str     0x000000000000124c       0x25 contiki-native.a(timer.o)
                                        0x18a (dimensione prima del rilassamento)
 .debug_str     0x0000000000001271       0xbf contiki-native.a(serial-line.o)
                                        0x2b0 (dimensione prima del rilassamento)
 .debug_str     0x0000000000001330       0x8d contiki-native.a(list.o)
                                        0x155 (dimensione prima del rilassamento)
 .debug_str     0x00000000000013bd       0x45 contiki-native.a(ringbuf.o)
                                        0x192 (dimensione prima del rilassamento)
 .debug_str     0x0000000000001402      0x365 contiki-native.a(uip-ds6.o)
                                        0x8c1 (dimensione prima del rilassamento)
 .debug_str     0x0000000000001767      0x5b1 contiki-native.a(uip-ds6-route.o)
                                        0xb23 (dimensione prima del rilassamento)
 .debug_str     0x0000000000001d18      0x4f0 contiki-native.a(uip6.o)
                                        0xadf (dimensione prima del rilassamento)
 .debug_str     0x0000000000002208      0x39d contiki-native.a(uip-ds6-nbr.o)
                                        0xadc (dimensione prima del rilassamento)
 .debug_str     0x00000000000025a5      0x185 contiki-native.a(uip-nd6.o)
                                        0x8d8 (dimensione prima del rilassamento)
 .debug_str     0x000000000000272a      0x553 contiki-native.a(sicslowpan.o)
                                        0xcf8 (dimensione prima del rilassamento)
 .debug_str     0x0000000000002c7d       0xae contiki-native.a(uip-packetqueue)
                                        0x4bf (dimensione prima del rilassamento)
 .debug_str     0x0000000000002d2b       0x43 contiki-native.a(uip-debug.o)
                                        0x356 (dimensione prima del rilassamento)
 .debug_str     0x0000000000002d6e      0x187 contiki-native.a(tcpip.o)
                                        0xc3b (dimensione prima del rilassamento)
 .debug_str     0x0000000000002ef5       0xcf contiki-native.a(simple-udp.o)
                                        0x46d (dimensione prima del rilassamento)
 .debug_str     0x0000000000002fc4      0x536 contiki-native.a(rpl-dag.o)
                                        0xf6e (dimensione prima del rilassamento)
 .debug_str     0x00000000000034fa      0x1af contiki-native.a(rpl-timers.o)
                                        0x9c3 (dimensione prima del rilassamento)
 .debug_str     0x00000000000036a9       0xd4 contiki-native.a(rpl.o)
                                        0xab5 (dimensione prima del rilassamento)
 .debug_str     0x000000000000377d       0xb3 contiki-native.a(rpl-mrhof.o)
                                        0x84c (dimensione prima del rilassamento)
 .debug_str     0x0000000000003830      0x1ca contiki-native.a(queuebuf.o)
                                        0x591 (dimensione prima del rilassamento)
 .debug_str     0x00000000000039fa      0x1b4 contiki-native.a(nbr-table.o)
                                        0x49d (dimensione prima del rilassamento)
 .debug_str     0x0000000000003bae      0x141 contiki-native.a(packetbuf.o)
                                        0x5c2 (dimensione prima del rilassamento)
 .debug_str     0x0000000000003cef      0x126 contiki-native.a(netstack.o)
                                        0x30d (dimensione prima del rilassamento)
 .debug_str     0x0000000000003e15       0x47 contiki-native.a(linkaddr.o)
                                        0x1b0 (dimensione prima del rilassamento)
 .debug_str     0x0000000000003e5c       0x39 contiki-native.a(nullmac.o)
                                        0x25a (dimensione prima del rilassamento)
 .debug_str     0x0000000000003e95      0x236 contiki-native.a(framer-802154.o)
                                        0x6b5 (dimensione prima del rilassamento)
 .debug_str     0x00000000000040cb       0x88 contiki-native.a(frame802154.o)
                                        0x3d1 (dimensione prima del rilassamento)
 .debug_str     0x0000000000004153       0x4d contiki-native.a(framer.o)
                                        0x230 (dimensione prima del rilassamento)
 .debug_str     0x00000000000041a0       0xa4 contiki-native.a(nullrdc.o)
                                        0x68d (dimensione prima del rilassamento)
 .debug_str     0x0000000000004244       0x3d contiki-native.a(nullsec.o)
                                        0x40a (dimensione prima del rilassamento)
 .debug_str     0x0000000000004281      0x1f0 contiki-native.a(servreg-hack.o)
                                        0x754 (dimensione prima del rilassamento)
 .debug_str     0x0000000000004471       0x78 contiki-native.a(clock.o)
                                        0x1c0 (dimensione prima del rilassamento)
 .debug_str     0x00000000000044e9       0x9f contiki-native.a(rtimer-arch.o)
                                        0x273 (dimensione prima del rilassamento)
 .debug_str     0x0000000000004588       0x67 contiki-native.a(watchdog.o)
                                        0x194 (dimensione prima del rilassamento)
 .debug_str     0x00000000000045ef       0x51 contiki-native.a(stimer.o)
                                        0x191 (dimensione prima del rilassamento)
 .debug_str     0x0000000000004640       0x47 contiki-native.a(nullradio.o)
                                        0x2a8 (dimensione prima del rilassamento)
 .debug_str     0x0000000000004687       0x32 contiki-native.a(memb.o)
                                        0x18b (dimensione prima del rilassamento)
 .debug_str     0x00000000000046b9       0x3d contiki-native.a(random.o)
                                        0x164 (dimensione prima del rilassamento)
 .debug_str     0x00000000000046f6      0x1a0 contiki-native.a(uip-icmp6.o)
                                        0x648 (dimensione prima del rilassamento)
 .debug_str     0x0000000000004896       0x4f contiki-native.a(uip-udp-packet.)
                                        0x2d4 (dimensione prima del rilassamento)
 .debug_str     0x00000000000048e5      0x115 contiki-native.a(rpl-icmp6.o)
                                        0xf2d (dimensione prima del rilassamento)
 .debug_str     0x00000000000049fa       0x2e contiki-native.a(mac.o)
                                        0x1bf (dimensione prima del rilassamento)

.debug_loc      0x0000000000000000    0x133ba
 *(.debug_loc)
 .debug_loc     0x0000000000000000      0x424 receiver.co
 .debug_loc     0x0000000000000424      0x6ea contiki-native.a(contiki-main.o)
 .debug_loc     0x0000000000000b0e       0x39 contiki-native.a(pir-sensor.o)
 .debug_loc     0x0000000000000b47      0x3c9 contiki-native.a(sensors.o)
 .debug_loc     0x0000000000000f10      0x61a contiki-native.a(ctimer.o)
 .debug_loc     0x000000000000152a      0x106 contiki-native.a(autostart.o)
 .debug_loc     0x0000000000001630      0x5a3 contiki-native.a(etimer.o)
 .debug_loc     0x0000000000001bd3      0x4dd contiki-native.a(process.o)
 .debug_loc     0x00000000000020b0      0x212 contiki-native.a(rtimer.o)
 .debug_loc     0x00000000000022c2      0x194 contiki-native.a(timer.o)
 .debug_loc     0x0000000000002456      0x2be contiki-native.a(serial-line.o)
 .debug_loc     0x0000000000002714      0x41b contiki-native.a(list.o)
 .debug_loc     0x0000000000002b2f       0x5c contiki-native.a(ringbuf.o)
 .debug_loc     0x0000000000002b8b      0xcea contiki-native.a(uip-ds6.o)
 .debug_loc     0x0000000000003875      0xe07 contiki-native.a(uip-ds6-route.o)
 .debug_loc     0x000000000000467c      0xd40 contiki-native.a(uip6.o)
 .debug_loc     0x00000000000053bc      0x631 contiki-native.a(uip-ds6-nbr.o)
 .debug_loc     0x00000000000059ed      0x54a contiki-native.a(uip-nd6.o)
 .debug_loc     0x0000000000005f37     0x1d20 contiki-native.a(sicslowpan.o)
 .debug_loc     0x0000000000007c57      0x17c contiki-native.a(uip-packetqueue)
 .debug_loc     0x0000000000007dd3      0x333 contiki-native.a(uip-debug.o)
 .debug_loc     0x0000000000008106     0x101c contiki-native.a(tcpip.o)
 .debug_loc     0x0000000000009122      0x7f4 contiki-native.a(simple-udp.o)
 .debug_loc     0x0000000000009916     0x2ba3 contiki-native.a(rpl-dag.o)
 .debug_loc     0x000000000000c4b9      0x82c contiki-native.a(rpl-timers.o)
 .debug_loc     0x000000000000cce5      0x5a8 contiki-native.a(rpl.o)
 .debug_loc     0x000000000000d28d      0x4af contiki-native.a(rpl-mrhof.o)
 .debug_loc     0x000000000000d73c      0x263 contiki-native.a(queuebuf.o)
 .debug_loc     0x000000000000d99f      0xfb4 contiki-native.a(nbr-table.o)
 .debug_loc     0x000000000000e953      0x8fb contiki-native.a(packetbuf.o)
 .debug_loc     0x000000000000f24e      0x128 contiki-native.a(linkaddr.o)
 .debug_loc     0x000000000000f376       0xab contiki-native.a(nullmac.o)
 .debug_loc     0x000000000000f421      0x1ee contiki-native.a(framer-802154.o)
 .debug_loc     0x000000000000f60f      0x5e7 contiki-native.a(frame802154.o)
 .debug_loc     0x000000000000fbf6       0x36 contiki-native.a(framer.o)
 .debug_loc     0x000000000000fc2c      0x308 contiki-native.a(nullrdc.o)
 .debug_loc     0x000000000000ff34       0xd1 contiki-native.a(nullsec.o)
 .debug_loc     0x0000000000010005      0xa7e contiki-native.a(servreg-hack.o)
 .debug_loc     0x0000000000010a83       0x95 contiki-native.a(rtimer-arch.o)
 .debug_loc     0x0000000000010b18      0x1a2 contiki-native.a(stimer.o)
 .debug_loc     0x0000000000010cba      0x32c contiki-native.a(memb.o)
 .debug_loc     0x0000000000010fe6       0x39 contiki-native.a(random.o)
 .debug_loc     0x000000000001101f      0x626 contiki-native.a(uip-icmp6.o)
 .debug_loc     0x0000000000011645      0x326 contiki-native.a(uip-udp-packet.)
 .debug_loc     0x000000000001196b     0x1932 contiki-native.a(rpl-icmp6.o)
 .debug_loc     0x000000000001329d      0x11d contiki-native.a(mac.o)

.debug_macinfo
 *(.debug_macinfo)

.debug_weaknames
 *(.debug_weaknames)

.debug_funcnames
 *(.debug_funcnames)

.debug_typenames
 *(.debug_typenames)

.debug_varnames
 *(.debug_varnames)

.debug_pubtypes
 *(.debug_pubtypes)

.debug_ranges   0x0000000000000000      0x4b0
 *(.debug_ranges)
 .debug_ranges  0x0000000000000000       0x60 contiki-native.a(contiki-main.o)
 .debug_ranges  0x0000000000000060       0x30 contiki-native.a(uip-ds6-route.o)
 .debug_ranges  0x0000000000000090       0x30 contiki-native.a(uip-ds6-nbr.o)
 .debug_ranges  0x00000000000000c0       0x50 contiki-native.a(uip-nd6.o)
 .debug_ranges  0x0000000000000110       0xf0 contiki-native.a(sicslowpan.o)
 .debug_ranges  0x0000000000000200       0x30 contiki-native.a(uip-debug.o)
 .debug_ranges  0x0000000000000230      0x100 contiki-native.a(rpl-dag.o)
 .debug_ranges  0x0000000000000330       0x40 contiki-native.a(rpl-timers.o)
 .debug_ranges  0x0000000000000370       0xb0 contiki-native.a(nbr-table.o)
 .debug_ranges  0x0000000000000420       0x60 contiki-native.a(uip-icmp6.o)
 .debug_ranges  0x0000000000000480       0x30 contiki-native.a(rpl-icmp6.o)

.debug_macro
 *(.debug_macro)

.gnu.attributes
 *(.gnu.attributes)

/DISCARD/
 *(.note.GNU-stack)
 *(.gnu_debuglink)
 *(.gnu.lto_*)
OUTPUT(receiver.native elf64-x86-64)
